Component: ARM Compiler 5.06 update 1 (build 61) Tool: armlink [4d35a8]

==============================================================================

Section Cross References

    main.o(i.assert_nrf_callback) refers to app_error.o(i.app_error_handler) for app_error_handler
    main.o(i.ble_evt_dispatch) refers to device_manager_peripheral.o(i.dm_ble_evt_handler) for dm_ble_evt_handler
    main.o(i.ble_evt_dispatch) refers to main.o(i.on_ble_evt) for on_ble_evt
    main.o(i.ble_evt_dispatch) refers to ble_advertising.o(i.ble_advertising_on_ble_evt) for ble_advertising_on_ble_evt
    main.o(i.ble_stack_init) refers to softdevice_handler.o(i.softdevice_handler_init) for softdevice_handler_init
    main.o(i.ble_stack_init) refers to app_error.o(i.app_error_handler_bare) for app_error_handler_bare
    main.o(i.ble_stack_init) refers to softdevice_handler.o(i.softdevice_enable_get_default_config) for softdevice_enable_get_default_config
    main.o(i.ble_stack_init) refers to softdevice_handler.o(i.sd_check_ram_start) for sd_check_ram_start
    main.o(i.ble_stack_init) refers to softdevice_handler.o(i.softdevice_enable) for softdevice_enable
    main.o(i.ble_stack_init) refers to softdevice_handler.o(i.softdevice_ble_evt_handler_set) for softdevice_ble_evt_handler_set
    main.o(i.ble_stack_init) refers to softdevice_handler.o(i.softdevice_sys_evt_handler_set) for softdevice_sys_evt_handler_set
    main.o(i.ble_stack_init) refers to main.o(.bss) for .bss
    main.o(i.ble_stack_init) refers to main.o(i.ble_evt_dispatch) for ble_evt_dispatch
    main.o(i.ble_stack_init) refers to main.o(i.sys_evt_dispatch) for sys_evt_dispatch
    main.o(i.buffers_init) refers to malloc.o(i.malloc) for malloc
    main.o(i.buffers_init) refers to printfa.o(i.__0printf) for __2printf
    main.o(i.buffers_init) refers to memseta.o(.text) for __aeabi_memclr
    main.o(i.buffers_init) refers to main.o(.data) for .data
    main.o(i.compress) refers to heatshrink_encoder.o(i.heatshrink_encoder_reset) for heatshrink_encoder_reset
    main.o(i.compress) refers to heatshrink_encoder.o(i.heatshrink_encoder_sink) for heatshrink_encoder_sink
    main.o(i.compress) refers to heatshrink_encoder.o(i.heatshrink_encoder_finish) for heatshrink_encoder_finish
    main.o(i.compress) refers to heatshrink_encoder.o(i.heatshrink_encoder_poll) for heatshrink_encoder_poll
    main.o(i.compress) refers to printfa.o(i.__0printf) for __2printf
    main.o(i.compress) refers to main.o(.bss) for .bss
    main.o(i.compress) refers to main.o(.data) for .data
    main.o(i.compress_task) refers to main.o(i.compress) for compress
    main.o(i.compress_task) refers to main.o(i.data_send) for data_send
    main.o(i.compress_task) refers to main.o(.data) for .data
    main.o(i.data_send) refers to main.o(i.ble_multi_data_send) for ble_multi_data_send
    main.o(i.data_send) refers to main.o(.data) for .data
    main.o(i.data_send) refers to main.o(.bss) for .bss
    main.o(i.device_manager_evt_handler) refers to main.o(.data) for .data
    main.o(i.device_manager_init) refers to pstorage.o(i.pstorage_init) for pstorage_init
    main.o(i.device_manager_init) refers to app_error.o(i.app_error_handler_bare) for app_error_handler_bare
    main.o(i.device_manager_init) refers to device_manager_peripheral.o(i.dm_init) for dm_init
    main.o(i.device_manager_init) refers to device_manager_peripheral.o(i.dm_register) for dm_register
    main.o(i.device_manager_init) refers to main.o(i.device_manager_evt_handler) for device_manager_evt_handler
    main.o(i.device_manager_init) refers to main.o(.data) for .data
    main.o(i.intan_setup) refers to memmovea.o(.text) for __aeabi_memcpy4
    main.o(i.intan_setup) refers to main.o(i.switch_state) for switch_state
    main.o(i.intan_setup) refers to nrf_delay.o(i.nrf_delay_ms) for nrf_delay_ms
    main.o(i.intan_setup) refers to main.o(.constdata) for .constdata
    main.o(i.intan_setup) refers to main.o(.data) for .data
    main.o(i.main) refers to app_uart_fifo.o(i.app_uart_init) for app_uart_init
    main.o(i.main) refers to app_error.o(i.app_error_handler_bare) for app_error_handler_bare
    main.o(i.main) refers to printfa.o(i.__0printf) for __2printf
    main.o(i.main) refers to main.o(i.ble_stack_init) for ble_stack_init
    main.o(i.main) refers to main.o(i.device_manager_init) for device_manager_init
    main.o(i.main) refers to memseta.o(.text) for __aeabi_memclr4
    main.o(i.main) refers to ble_advertising.o(i.ble_advertising_init) for ble_advertising_init
    main.o(i.main) refers to main.o(i.services_init) for services_init
    main.o(i.main) refers to main.o(i.intan_setup) for intan_setup
    main.o(i.main) refers to app_uart_fifo.o(i.app_uart_put) for app_uart_put
    main.o(i.main) refers to main.o(i.buffers_init) for buffers_init
    main.o(i.main) refers to tasks.o(i.xTaskGenericCreate) for xTaskGenericCreate
    main.o(i.main) refers to timers.o(i.xTimerCreate) for xTimerCreate
    main.o(i.main) refers to tasks.o(i.xTaskGetTickCount) for xTaskGetTickCount
    main.o(i.main) refers to timers.o(i.xTimerGenericCommand) for xTimerGenericCommand
    main.o(i.main) refers to ble_advertising.o(i.ble_advertising_start) for ble_advertising_start
    main.o(i.main) refers to main.o(i.ble_multi_data_send) for ble_multi_data_send
    main.o(i.main) refers to nrf_delay.o(i.nrf_delay_ms) for nrf_delay_ms
    main.o(i.main) refers to tasks.o(i.vTaskStartScheduler) for vTaskStartScheduler
    main.o(i.main) refers to tasks.o(i.xTaskResumeAll) for xTaskResumeAll
    main.o(i.main) refers to main.o(.constdata) for .constdata
    main.o(i.main) refers to main.o(.bss) for .bss
    main.o(i.main) refers to main.o(i.uart_event_handle) for uart_event_handle
    main.o(i.main) refers to main.o(i.on_adv_evt) for on_adv_evt
    main.o(i.main) refers to main.o(i.compress_task) for compress_task
    main.o(i.main) refers to main.o(i.spi_data_collection_evt_handler) for spi_data_collection_evt_handler
    main.o(i.main) refers to main.o(.data) for .data
    main.o(i.on_adv_evt) refers to app_error.o(i.app_error_handler_bare) for app_error_handler_bare
    main.o(i.on_ble_evt) refers to printfa.o(i.__0printf) for __2printf
    main.o(i.on_ble_evt) refers to main.o(i.data_send) for data_send
    main.o(i.on_ble_evt) refers to main.o(i.ble_multi_data_send) for ble_multi_data_send
    main.o(i.on_ble_evt) refers to tasks.o(i.vTaskSuspendAll) for vTaskSuspendAll
    main.o(i.on_ble_evt) refers to main.o(.data) for .data
    main.o(i.sample_data) refers to main.o(i.switch_state) for switch_state
    main.o(i.sample_data) refers to app_uart_fifo.o(i.app_uart_put) for app_uart_put
    main.o(i.sample_data) refers to main.o(.data) for .data
    main.o(i.services_init) refers to app_error.o(i.app_error_handler_bare) for app_error_handler_bare
    main.o(i.services_init) refers to memseta.o(.text) for __aeabi_memclr4
    main.o(i.services_init) refers to strlen.o(.text) for strlen
    main.o(i.services_init) refers to main.o(.constdata) for .constdata
    main.o(i.services_init) refers to main.o(.data) for .data
    main.o(i.spi_data_collection_evt_handler) refers to main.o(i.sample_data) for sample_data
    main.o(i.spi_intan_id_read_handler) refers to nrf_drv_spi.o(i.nrf_drv_spi_uninit) for nrf_drv_spi_uninit
    main.o(i.spi_intan_id_read_handler) refers to main.o(.constdata) for .constdata
    main.o(i.spi_intan_id_read_handler) refers to main.o(.data) for .data
    main.o(i.spi_master_0_event_handler) refers to nrf_drv_spi.o(i.nrf_drv_spi_uninit) for nrf_drv_spi_uninit
    main.o(i.spi_master_0_event_handler) refers to app_uart_fifo.o(i.app_uart_put) for app_uart_put
    main.o(i.spi_master_0_event_handler) refers to main.o(i.sample_data) for sample_data
    main.o(i.spi_master_0_event_handler) refers to main.o(.constdata) for .constdata
    main.o(i.spi_master_0_event_handler) refers to main.o(.data) for .data
    main.o(i.switch_state) refers to nrf_drv_spi.o(i.nrf_drv_spi_init) for nrf_drv_spi_init
    main.o(i.switch_state) refers to app_error.o(i.app_error_handler_bare) for app_error_handler_bare
    main.o(i.switch_state) refers to nrf_drv_spi.o(i.nrf_drv_spi_transfer) for nrf_drv_spi_transfer
    main.o(i.switch_state) refers to main.o(.constdata) for .constdata
    main.o(i.switch_state) refers to main.o(i.spi_master_0_event_handler) for spi_master_0_event_handler
    main.o(i.switch_state) refers to main.o(.data) for .data
    main.o(i.sys_evt_dispatch) refers to pstorage.o(i.pstorage_sys_event_handler) for pstorage_sys_event_handler
    main.o(i.sys_evt_dispatch) refers to ble_advertising.o(i.ble_advertising_on_sys_evt) for ble_advertising_on_sys_evt
    main.o(i.uart_error_handle) refers to app_error.o(i.app_error_handler_bare) for app_error_handler_bare
    main.o(i.uart_event_handle) refers to app_error.o(i.app_error_handler_bare) for app_error_handler_bare
    main.o(i.uart_event_handle) refers to app_uart_fifo.o(i.app_uart_get) for app_uart_get
    main.o(i.uart_event_handle) refers to main.o(.bss) for .bss
    main.o(i.uart_event_handle) refers to main.o(.data) for .data
    ble_advertising.o(i.ble_advertising_init) refers to memmovea.o(.text) for __aeabi_memcpy4
    ble_advertising.o(i.ble_advertising_init) refers to ble_advertising.o(i.ble_advertising_peer_address_clear) for ble_advertising_peer_address_clear
    ble_advertising.o(i.ble_advertising_init) refers to memseta.o(.text) for __aeabi_memclr4
    ble_advertising.o(i.ble_advertising_init) refers to ble_advdata.o(i.ble_advdata_set) for ble_advdata_set
    ble_advertising.o(i.ble_advertising_init) refers to ble_advertising.o(.data) for .data
    ble_advertising.o(i.ble_advertising_init) refers to ble_advertising.o(.bss) for .bss
    ble_advertising.o(i.ble_advertising_on_ble_evt) refers to ble_advertising.o(i.ble_advertising_start) for ble_advertising_start
    ble_advertising.o(i.ble_advertising_on_ble_evt) refers to ble_advertising.o(.data) for .data
    ble_advertising.o(i.ble_advertising_on_sys_evt) refers to ble_advertising.o(i.ble_advertising_start) for ble_advertising_start
    ble_advertising.o(i.ble_advertising_on_sys_evt) refers to ble_advertising.o(.data) for .data
    ble_advertising.o(i.ble_advertising_peer_addr_reply) refers to ble_advertising.o(.data) for .data
    ble_advertising.o(i.ble_advertising_peer_address_clear) refers to memseta.o(.text) for __aeabi_memclr4
    ble_advertising.o(i.ble_advertising_peer_address_clear) refers to ble_advertising.o(.data) for .data
    ble_advertising.o(i.ble_advertising_restart_without_whitelist) refers to ble_advertising.o(i.ble_advertising_start) for ble_advertising_start
    ble_advertising.o(i.ble_advertising_restart_without_whitelist) refers to ble_advertising.o(.bss) for .bss
    ble_advertising.o(i.ble_advertising_restart_without_whitelist) refers to ble_advertising.o(.data) for .data
    ble_advertising.o(i.ble_advertising_start) refers to pstorage.o(i.pstorage_access_status_get) for pstorage_access_status_get
    ble_advertising.o(i.ble_advertising_start) refers to ble_advertising.o(i.ble_advertising_peer_address_clear) for ble_advertising_peer_address_clear
    ble_advertising.o(i.ble_advertising_start) refers to ble_advertising.o(i.peer_address_exists) for peer_address_exists
    ble_advertising.o(i.ble_advertising_start) refers to memseta.o(.text) for __aeabi_memclr4
    ble_advertising.o(i.ble_advertising_start) refers to ble_advertising.o(i.whitelist_has_entries) for whitelist_has_entries
    ble_advertising.o(i.ble_advertising_start) refers to ble_advdata.o(i.ble_advdata_set) for ble_advdata_set
    ble_advertising.o(i.ble_advertising_start) refers to ble_advertising.o(.data) for .data
    ble_advertising.o(i.ble_advertising_start) refers to ble_advertising.o(.bss) for .bss
    ble_advertising.o(i.ble_advertising_whitelist_reply) refers to ble_advertising.o(.data) for .data
    ble_advertising.o(i.ble_advertising_whitelist_reply) refers to ble_advertising.o(.bss) for .bss
    ble_advdata.o(i.adv_data_encode) refers to ble_advdata.o(i.le_role_encode) for le_role_encode
    ble_advdata.o(i.adv_data_encode) refers to ble_advdata.o(i.ble_device_addr_encode) for ble_device_addr_encode
    ble_advdata.o(i.adv_data_encode) refers to ble_advdata.o(i.uint16_encode) for uint16_encode
    ble_advdata.o(i.adv_data_encode) refers to ble_advdata.o(i.uuid_list_encode) for uuid_list_encode
    ble_advdata.o(i.adv_data_encode) refers to ble_advdata.o(i.conn_int_encode) for conn_int_encode
    ble_advdata.o(i.adv_data_encode) refers to ble_advdata.o(i.manuf_specific_data_encode) for manuf_specific_data_encode
    ble_advdata.o(i.adv_data_encode) refers to ble_advdata.o(i.service_data_encode) for service_data_encode
    ble_advdata.o(i.adv_data_encode) refers to ble_advdata.o(i.name_encode) for name_encode
    ble_advdata.o(i.ble_advdata_set) refers to ble_advdata.o(i.adv_data_encode) for adv_data_encode
    ble_advdata.o(i.ble_device_addr_encode) refers to memmovea.o(.text) for __aeabi_memcpy
    ble_advdata.o(i.conn_int_encode) refers to ble_advdata.o(i.uint16_encode) for uint16_encode
    ble_advdata.o(i.manuf_specific_data_encode) refers to ble_advdata.o(i.uint16_encode) for uint16_encode
    ble_advdata.o(i.manuf_specific_data_encode) refers to memmovea.o(.text) for __aeabi_memcpy
    ble_advdata.o(i.service_data_encode) refers to ble_advdata.o(i.uint16_encode) for uint16_encode
    ble_advdata.o(i.service_data_encode) refers to memmovea.o(.text) for __aeabi_memcpy
    ble_advdata.o(i.uuid_list_encode) refers to ble_advdata.o(i.uuid_list_sized_encode) for uuid_list_sized_encode
    ble_conn_params.o(i.ble_conn_params_change_conn_params) refers to memmovea.o(.text) for __aeabi_memcpy
    ble_conn_params.o(i.ble_conn_params_change_conn_params) refers to ble_conn_params.o(i.is_conn_params_ok) for is_conn_params_ok
    ble_conn_params.o(i.ble_conn_params_change_conn_params) refers to ble_conn_params.o(.data) for .data
    ble_conn_params.o(i.ble_conn_params_change_conn_params) refers to ble_conn_params.o(.bss) for .bss
    ble_conn_params.o(i.ble_conn_params_init) refers to memmovea.o(.text) for __aeabi_memcpy4
    ble_conn_params.o(i.ble_conn_params_init) refers to app_timer_freertos.o(i.app_timer_create) for app_timer_create
    ble_conn_params.o(i.ble_conn_params_init) refers to ble_conn_params.o(.bss) for .bss
    ble_conn_params.o(i.ble_conn_params_init) refers to ble_conn_params.o(.data) for .data
    ble_conn_params.o(i.ble_conn_params_init) refers to ble_conn_params.o(i.update_timeout_handler) for update_timeout_handler
    ble_conn_params.o(i.ble_conn_params_init) refers to ble_conn_params.o(.constdata) for .constdata
    ble_conn_params.o(i.ble_conn_params_on_ble_evt) refers to memmovea.o(.text) for __aeabi_memcpy
    ble_conn_params.o(i.ble_conn_params_on_ble_evt) refers to ble_conn_params.o(i.conn_params_negotiation) for conn_params_negotiation
    ble_conn_params.o(i.ble_conn_params_on_ble_evt) refers to app_timer_freertos.o(i.app_timer_stop) for app_timer_stop
    ble_conn_params.o(i.ble_conn_params_on_ble_evt) refers to ble_conn_params.o(.data) for .data
    ble_conn_params.o(i.ble_conn_params_on_ble_evt) refers to ble_conn_params.o(.bss) for .bss
    ble_conn_params.o(i.ble_conn_params_on_ble_evt) refers to ble_conn_params.o(.constdata) for .constdata
    ble_conn_params.o(i.ble_conn_params_stop) refers to app_timer_freertos.o(i.app_timer_stop) for app_timer_stop
    ble_conn_params.o(i.ble_conn_params_stop) refers to ble_conn_params.o(.constdata) for .constdata
    ble_conn_params.o(i.conn_params_negotiation) refers to ble_conn_params.o(i.is_conn_params_ok) for is_conn_params_ok
    ble_conn_params.o(i.conn_params_negotiation) refers to app_timer_freertos.o(i.app_timer_start) for app_timer_start
    ble_conn_params.o(i.conn_params_negotiation) refers to ble_conn_params.o(.data) for .data
    ble_conn_params.o(i.conn_params_negotiation) refers to ble_conn_params.o(.bss) for .bss
    ble_conn_params.o(i.conn_params_negotiation) refers to ble_conn_params.o(.constdata) for .constdata
    ble_conn_params.o(i.is_conn_params_ok) refers to ble_conn_params.o(.data) for .data
    ble_conn_params.o(i.update_timeout_handler) refers to ble_conn_params.o(.data) for .data
    ble_conn_params.o(i.update_timeout_handler) refers to ble_conn_params.o(.bss) for .bss
    ble_conn_params.o(.constdata) refers to ble_conn_params.o(.bss) for m_conn_params_timer_id_data
    ble_srv_common.o(i.ble_srv_ascii_to_utf8) refers to strlen.o(.text) for strlen
    ble_srv_common.o(i.characteristic_add) refers to ble_srv_common.o(i.set_security_req) for set_security_req
    ble_srv_common.o(i.characteristic_add) refers to memseta.o(.text) for __aeabi_memclr4
    ble_srv_common.o(i.descriptor_add) refers to memseta.o(.text) for __aeabi_memclr4
    ble_srv_common.o(i.descriptor_add) refers to ble_srv_common.o(i.set_security_req) for set_security_req
    ble_srv_common.o(i.set_security_req) refers to ble_srv_common.o(i.__ARM_common_switch8) for __ARM_common_switch8
    device_manager_peripheral.o(i.app_evt_notify) refers to device_manager_peripheral.o(.bss) for .bss
    device_manager_peripheral.o(i.bond_data_load) refers to pstorage.o(i.pstorage_block_identifier_get) for pstorage_block_identifier_get
    device_manager_peripheral.o(i.bond_data_load) refers to pstorage.o(i.pstorage_load) for pstorage_load
    device_manager_peripheral.o(i.bond_data_load) refers to device_manager_peripheral.o(.data) for .data
    device_manager_peripheral.o(i.bond_data_load) refers to device_manager_peripheral.o(.bss) for .bss
    device_manager_peripheral.o(i.bond_data_load) refers to device_manager_peripheral.o(.constdata) for .constdata
    device_manager_peripheral.o(i.connection_instance_find) refers to device_manager_peripheral.o(.bss) for .bss
    device_manager_peripheral.o(i.connection_instance_init) refers to memseta.o(.text) for __aeabi_memclr
    device_manager_peripheral.o(i.connection_instance_init) refers to device_manager_peripheral.o(.bss) for .bss
    device_manager_peripheral.o(i.device_context_store) refers to pstorage.o(i.pstorage_block_identifier_get) for pstorage_block_identifier_get
    device_manager_peripheral.o(i.device_context_store) refers to device_manager_peripheral.o(.data) for .data
    device_manager_peripheral.o(i.device_context_store) refers to device_manager_peripheral.o(.bss) for .bss
    device_manager_peripheral.o(i.device_context_store) refers to device_manager_peripheral.o(i.storage_operation_dummy_handler) for storage_operation_dummy_handler
    device_manager_peripheral.o(i.device_context_store) refers to device_manager_peripheral.o(.constdata) for .constdata
    device_manager_peripheral.o(i.device_context_store) refers to pstorage.o(i.pstorage_update) for pstorage_update
    device_manager_peripheral.o(i.device_context_store) refers to pstorage.o(i.pstorage_store) for pstorage_store
    device_manager_peripheral.o(i.device_instance_allocate) refers to memmovea.o(.text) for __aeabi_memcpy
    device_manager_peripheral.o(i.device_instance_allocate) refers to device_manager_peripheral.o(.bss) for .bss
    device_manager_peripheral.o(i.device_instance_find) refers to memcmp.o(.text) for memcmp
    device_manager_peripheral.o(i.device_instance_find) refers to device_manager_peripheral.o(.bss) for .bss
    device_manager_peripheral.o(i.device_instance_free) refers to pstorage.o(i.pstorage_block_identifier_get) for pstorage_block_identifier_get
    device_manager_peripheral.o(i.device_instance_free) refers to pstorage.o(i.pstorage_clear) for pstorage_clear
    device_manager_peripheral.o(i.device_instance_free) refers to device_manager_peripheral.o(i.peer_instance_init) for peer_instance_init
    device_manager_peripheral.o(i.device_instance_free) refers to device_manager_peripheral.o(.data) for .data
    device_manager_peripheral.o(i.dm_application_instance_set) refers to device_manager_peripheral.o(.data) for .data
    device_manager_peripheral.o(i.dm_application_instance_set) refers to device_manager_peripheral.o(.bss) for .bss
    device_manager_peripheral.o(i.dm_ble_evt_handler) refers to device_manager_peripheral.o(i.dm_handle_initialize) for dm_handle_initialize
    device_manager_peripheral.o(i.dm_ble_evt_handler) refers to app_error.o(i.app_error_handler_bare) for app_error_handler_bare
    device_manager_peripheral.o(i.dm_ble_evt_handler) refers to device_manager_peripheral.o(i.connection_instance_find) for connection_instance_find
    device_manager_peripheral.o(i.dm_ble_evt_handler) refers to memmovea.o(.text) for __aeabi_memcpy
    device_manager_peripheral.o(i.dm_ble_evt_handler) refers to device_manager_peripheral.o(i.device_instance_find) for device_instance_find
    device_manager_peripheral.o(i.dm_ble_evt_handler) refers to device_manager_peripheral.o(i.bond_data_load) for bond_data_load
    device_manager_peripheral.o(i.dm_ble_evt_handler) refers to device_manager_peripheral.o(i.device_context_store) for device_context_store
    device_manager_peripheral.o(i.dm_ble_evt_handler) refers to device_manager_peripheral.o(i.peer_instance_init) for peer_instance_init
    device_manager_peripheral.o(i.dm_ble_evt_handler) refers to memseta.o(.text) for __aeabi_memclr4
    device_manager_peripheral.o(i.dm_ble_evt_handler) refers to device_manager_peripheral.o(i.device_instance_allocate) for device_instance_allocate
    device_manager_peripheral.o(i.dm_ble_evt_handler) refers to device_manager_peripheral.o(i.device_instance_free) for device_instance_free
    device_manager_peripheral.o(i.dm_ble_evt_handler) refers to device_manager_peripheral.o(i.app_evt_notify) for app_evt_notify
    device_manager_peripheral.o(i.dm_ble_evt_handler) refers to device_manager_peripheral.o(i.connection_instance_init) for connection_instance_init
    device_manager_peripheral.o(i.dm_ble_evt_handler) refers to device_manager_peripheral.o(.data) for .data
    device_manager_peripheral.o(i.dm_ble_evt_handler) refers to device_manager_peripheral.o(.bss) for .bss
    device_manager_peripheral.o(i.dm_ble_evt_handler) refers to device_manager_peripheral.o(.constdata) for .constdata
    device_manager_peripheral.o(i.dm_device_delete) refers to device_manager_peripheral.o(i.device_instance_free) for device_instance_free
    device_manager_peripheral.o(i.dm_device_delete) refers to device_manager_peripheral.o(.data) for .data
    device_manager_peripheral.o(i.dm_device_delete) refers to device_manager_peripheral.o(.bss) for .bss
    device_manager_peripheral.o(i.dm_device_delete_all) refers to device_manager_peripheral.o(i.device_instance_free) for device_instance_free
    device_manager_peripheral.o(i.dm_device_delete_all) refers to device_manager_peripheral.o(.data) for .data
    device_manager_peripheral.o(i.dm_device_delete_all) refers to device_manager_peripheral.o(.bss) for .bss
    device_manager_peripheral.o(i.dm_distributed_keys_get) refers to pstorage.o(i.pstorage_block_identifier_get) for pstorage_block_identifier_get
    device_manager_peripheral.o(i.dm_distributed_keys_get) refers to pstorage.o(i.pstorage_load) for pstorage_load
    device_manager_peripheral.o(i.dm_distributed_keys_get) refers to device_manager_peripheral.o(.data) for .data
    device_manager_peripheral.o(i.dm_distributed_keys_get) refers to device_manager_peripheral.o(.bss) for .bss
    device_manager_peripheral.o(i.dm_handle_get) refers to device_manager_peripheral.o(.bss) for .bss
    device_manager_peripheral.o(i.dm_init) refers to device_manager_peripheral.o(i.connection_instance_init) for connection_instance_init
    device_manager_peripheral.o(i.dm_init) refers to memseta.o(.text) for __aeabi_memclr4
    device_manager_peripheral.o(i.dm_init) refers to device_manager_peripheral.o(i.peer_instance_init) for peer_instance_init
    device_manager_peripheral.o(i.dm_init) refers to pstorage.o(i.pstorage_register) for pstorage_register
    device_manager_peripheral.o(i.dm_init) refers to pstorage.o(i.pstorage_clear) for pstorage_clear
    device_manager_peripheral.o(i.dm_init) refers to pstorage.o(i.pstorage_block_identifier_get) for pstorage_block_identifier_get
    device_manager_peripheral.o(i.dm_init) refers to pstorage.o(i.pstorage_load) for pstorage_load
    device_manager_peripheral.o(i.dm_init) refers to device_manager_peripheral.o(.bss) for .bss
    device_manager_peripheral.o(i.dm_init) refers to device_manager_peripheral.o(.data) for .data
    device_manager_peripheral.o(i.dm_init) refers to device_manager_peripheral.o(i.dm_pstorage_cb_handler) for dm_pstorage_cb_handler
    device_manager_peripheral.o(i.dm_peer_addr_get) refers to memmovea.o(.text) for __aeabi_memcpy
    device_manager_peripheral.o(i.dm_peer_addr_get) refers to device_manager_peripheral.o(.data) for .data
    device_manager_peripheral.o(i.dm_peer_addr_get) refers to device_manager_peripheral.o(.bss) for .bss
    device_manager_peripheral.o(i.dm_peer_addr_set) refers to memmovea.o(.text) for __aeabi_memcpy
    device_manager_peripheral.o(i.dm_peer_addr_set) refers to device_manager_peripheral.o(i.device_context_store) for device_context_store
    device_manager_peripheral.o(i.dm_peer_addr_set) refers to device_manager_peripheral.o(.data) for .data
    device_manager_peripheral.o(i.dm_peer_addr_set) refers to device_manager_peripheral.o(.bss) for .bss
    device_manager_peripheral.o(i.dm_pstorage_cb_handler) refers to device_manager_peripheral.o(i.dm_handle_initialize) for dm_handle_initialize
    device_manager_peripheral.o(i.dm_pstorage_cb_handler) refers to app_error.o(i.app_error_handler_bare) for app_error_handler_bare
    device_manager_peripheral.o(i.dm_pstorage_cb_handler) refers to pstorage.o(i.pstorage_block_identifier_get) for pstorage_block_identifier_get
    device_manager_peripheral.o(i.dm_pstorage_cb_handler) refers to memcmp.o(.text) for memcmp
    device_manager_peripheral.o(i.dm_pstorage_cb_handler) refers to uidiv.o(.text) for __aeabi_uidivmod
    device_manager_peripheral.o(i.dm_pstorage_cb_handler) refers to device_manager_peripheral.o(i.app_evt_notify) for app_evt_notify
    device_manager_peripheral.o(i.dm_pstorage_cb_handler) refers to device_manager_peripheral.o(i.update_status_bit_reset) for update_status_bit_reset
    device_manager_peripheral.o(i.dm_pstorage_cb_handler) refers to memseta.o(.text) for __aeabi_memclr4
    device_manager_peripheral.o(i.dm_pstorage_cb_handler) refers to device_manager_peripheral.o(.bss) for .bss
    device_manager_peripheral.o(i.dm_pstorage_cb_handler) refers to device_manager_peripheral.o(.data) for .data
    device_manager_peripheral.o(i.dm_register) refers to memmovea.o(.text) for __aeabi_memcpy
    device_manager_peripheral.o(i.dm_register) refers to device_manager_peripheral.o(.data) for .data
    device_manager_peripheral.o(i.dm_register) refers to device_manager_peripheral.o(.bss) for .bss
    device_manager_peripheral.o(i.dm_security_setup_req) refers to device_manager_peripheral.o(.data) for .data
    device_manager_peripheral.o(i.dm_security_setup_req) refers to device_manager_peripheral.o(.bss) for .bss
    device_manager_peripheral.o(i.dm_security_status_req) refers to device_manager_peripheral.o(.data) for .data
    device_manager_peripheral.o(i.dm_security_status_req) refers to device_manager_peripheral.o(.bss) for .bss
    device_manager_peripheral.o(i.dm_service_context_delete) refers to device_manager_peripheral.o(.data) for .data
    device_manager_peripheral.o(i.dm_service_context_delete) refers to device_manager_peripheral.o(.bss) for .bss
    device_manager_peripheral.o(i.dm_service_context_get) refers to pstorage.o(i.pstorage_block_identifier_get) for pstorage_block_identifier_get
    device_manager_peripheral.o(i.dm_service_context_get) refers to device_manager_peripheral.o(.data) for .data
    device_manager_peripheral.o(i.dm_service_context_get) refers to device_manager_peripheral.o(.bss) for .bss
    device_manager_peripheral.o(i.dm_service_context_get) refers to device_manager_peripheral.o(.constdata) for .constdata
    device_manager_peripheral.o(i.dm_service_context_set) refers to memmovea.o(.text) for __aeabi_memcpy
    device_manager_peripheral.o(i.dm_service_context_set) refers to pstorage.o(i.pstorage_block_identifier_get) for pstorage_block_identifier_get
    device_manager_peripheral.o(i.dm_service_context_set) refers to device_manager_peripheral.o(.data) for .data
    device_manager_peripheral.o(i.dm_service_context_set) refers to device_manager_peripheral.o(.bss) for .bss
    device_manager_peripheral.o(i.dm_service_context_set) refers to device_manager_peripheral.o(.constdata) for .constdata
    device_manager_peripheral.o(i.dm_whitelist_create) refers to device_manager_peripheral.o(.data) for .data
    device_manager_peripheral.o(i.dm_whitelist_create) refers to device_manager_peripheral.o(.bss) for .bss
    device_manager_peripheral.o(i.gatts_context_apply) refers to device_manager_peripheral.o(.bss) for .bss
    device_manager_peripheral.o(i.gatts_context_load) refers to pstorage.o(i.pstorage_load) for pstorage_load
    device_manager_peripheral.o(i.gatts_context_load) refers to device_manager_peripheral.o(.bss) for .bss
    device_manager_peripheral.o(i.gatts_context_store) refers to memcmp.o(.text) for memcmp
    device_manager_peripheral.o(i.gatts_context_store) refers to memseta.o(.text) for __aeabi_memclr4
    device_manager_peripheral.o(i.gatts_context_store) refers to memmovea.o(.text) for __aeabi_memcpy4
    device_manager_peripheral.o(i.gatts_context_store) refers to device_manager_peripheral.o(.bss) for .bss
    device_manager_peripheral.o(i.gatts_context_store) refers to pstorage.o(i.pstorage_update) for pstorage_update
    device_manager_peripheral.o(i.gatts_context_store) refers to pstorage.o(i.pstorage_store) for pstorage_store
    device_manager_peripheral.o(i.gattsc_context_apply) refers to device_manager_peripheral.o(i.gatts_context_apply) for gatts_context_apply
    device_manager_peripheral.o(i.gattsc_context_load) refers to device_manager_peripheral.o(i.gatts_context_load) for gatts_context_load
    device_manager_peripheral.o(i.gattsc_context_store) refers to device_manager_peripheral.o(i.gatts_context_store) for gatts_context_store
    device_manager_peripheral.o(i.peer_instance_init) refers to memseta.o(.text) for __aeabi_memclr
    device_manager_peripheral.o(i.peer_instance_init) refers to device_manager_peripheral.o(i.update_status_bit_reset) for update_status_bit_reset
    device_manager_peripheral.o(i.peer_instance_init) refers to device_manager_peripheral.o(.bss) for .bss
    device_manager_peripheral.o(i.update_status_bit_reset) refers to device_manager_peripheral.o(.data) for .data
    device_manager_peripheral.o(.constdata) refers to device_manager_peripheral.o(i.no_service_context_store) for no_service_context_store
    device_manager_peripheral.o(.constdata) refers to device_manager_peripheral.o(i.gatts_context_store) for gatts_context_store
    device_manager_peripheral.o(.constdata) refers to device_manager_peripheral.o(i.gattc_context_store) for gattc_context_store
    device_manager_peripheral.o(.constdata) refers to device_manager_peripheral.o(i.gattsc_context_store) for gattsc_context_store
    device_manager_peripheral.o(.constdata) refers to device_manager_peripheral.o(i.no_service_context_load) for no_service_context_load
    device_manager_peripheral.o(.constdata) refers to device_manager_peripheral.o(i.gatts_context_load) for gatts_context_load
    device_manager_peripheral.o(.constdata) refers to device_manager_peripheral.o(i.gattc_context_load) for gattc_context_load
    device_manager_peripheral.o(.constdata) refers to device_manager_peripheral.o(i.gattsc_context_load) for gattsc_context_load
    device_manager_peripheral.o(.constdata) refers to device_manager_peripheral.o(i.no_service_context_apply) for no_service_context_apply
    device_manager_peripheral.o(.constdata) refers to device_manager_peripheral.o(i.gatts_context_apply) for gatts_context_apply
    device_manager_peripheral.o(.constdata) refers to device_manager_peripheral.o(i.gattc_context_apply) for gattc_context_apply
    device_manager_peripheral.o(.constdata) refers to device_manager_peripheral.o(i.gattsc_context_apply) for gattsc_context_apply
    nrf_delay.o(i.nrf_delay_ms) refers to nrf_delay.o(.emb_text) for __asm___11_nrf_delay_c_532987f3__nrf_delay_us
    nrf_drv_gpiote.o(i.GPIOTE_IRQHandler) refers to nrf_drv_gpiote.o(i.nrf_gpiote_event_is_set) for nrf_gpiote_event_is_set
    nrf_drv_gpiote.o(i.GPIOTE_IRQHandler) refers to nrf_drv_gpiote.o(i.channel_port_get) for channel_port_get
    nrf_drv_gpiote.o(i.GPIOTE_IRQHandler) refers to nrf_drv_gpiote.o(i.nrf_gpio_cfg_sense_set) for nrf_gpio_cfg_sense_set
    nrf_drv_gpiote.o(i.GPIOTE_IRQHandler) refers to nrf_drv_gpiote.o(.bss) for .bss
    nrf_drv_gpiote.o(i.channel_free) refers to nrf_drv_gpiote.o(.bss) for .bss
    nrf_drv_gpiote.o(i.channel_port_alloc) refers to nrf_drv_gpiote.o(.bss) for .bss
    nrf_drv_gpiote.o(i.channel_port_get) refers to nrf_drv_gpiote.o(.bss) for .bss
    nrf_drv_gpiote.o(i.nrf_drv_gpiote_in_event_addr_get) refers to nrf_drv_gpiote.o(i.channel_port_get) for channel_port_get
    nrf_drv_gpiote.o(i.nrf_drv_gpiote_in_event_disable) refers to nrf_drv_gpiote.o(i.pin_in_use_by_port) for pin_in_use_by_port
    nrf_drv_gpiote.o(i.nrf_drv_gpiote_in_event_disable) refers to nrf_drv_gpiote.o(i.nrf_gpio_cfg_sense_set) for nrf_gpio_cfg_sense_set
    nrf_drv_gpiote.o(i.nrf_drv_gpiote_in_event_disable) refers to nrf_drv_gpiote.o(i.pin_in_use_by_te) for pin_in_use_by_te
    nrf_drv_gpiote.o(i.nrf_drv_gpiote_in_event_disable) refers to nrf_drv_gpiote.o(i.channel_port_get) for channel_port_get
    nrf_drv_gpiote.o(i.nrf_drv_gpiote_in_event_enable) refers to nrf_drv_gpiote.o(i.pin_in_use_by_port) for pin_in_use_by_port
    nrf_drv_gpiote.o(i.nrf_drv_gpiote_in_event_enable) refers to nrf_drv_gpiote.o(i.channel_port_get) for channel_port_get
    nrf_drv_gpiote.o(i.nrf_drv_gpiote_in_event_enable) refers to nrf_drv_gpiote.o(i.nrf_gpio_cfg_sense_set) for nrf_gpio_cfg_sense_set
    nrf_drv_gpiote.o(i.nrf_drv_gpiote_in_event_enable) refers to nrf_drv_gpiote.o(i.pin_in_use_by_te) for pin_in_use_by_te
    nrf_drv_gpiote.o(i.nrf_drv_gpiote_in_event_enable) refers to nrf_drv_gpiote.o(.bss) for .bss
    nrf_drv_gpiote.o(i.nrf_drv_gpiote_in_init) refers to nrf_drv_gpiote.o(i.channel_port_alloc) for channel_port_alloc
    nrf_drv_gpiote.o(i.nrf_drv_gpiote_in_init) refers to nrf_drv_gpiote.o(i.nrf_gpio_cfg) for nrf_gpio_cfg
    nrf_drv_gpiote.o(i.nrf_drv_gpiote_in_init) refers to nrf_drv_gpiote.o(.bss) for .bss
    nrf_drv_gpiote.o(i.nrf_drv_gpiote_in_uninit) refers to nrf_drv_gpiote.o(i.nrf_drv_gpiote_in_event_disable) for nrf_drv_gpiote_in_event_disable
    nrf_drv_gpiote.o(i.nrf_drv_gpiote_in_uninit) refers to nrf_drv_gpiote.o(i.pin_in_use_by_te) for pin_in_use_by_te
    nrf_drv_gpiote.o(i.nrf_drv_gpiote_in_uninit) refers to nrf_drv_gpiote.o(i.channel_port_get) for channel_port_get
    nrf_drv_gpiote.o(i.nrf_drv_gpiote_in_uninit) refers to nrf_drv_gpiote.o(i.nrf_gpio_cfg_default) for nrf_gpio_cfg_default
    nrf_drv_gpiote.o(i.nrf_drv_gpiote_in_uninit) refers to nrf_drv_gpiote.o(i.channel_free) for channel_free
    nrf_drv_gpiote.o(i.nrf_drv_gpiote_in_uninit) refers to nrf_drv_gpiote.o(.bss) for .bss
    nrf_drv_gpiote.o(i.nrf_drv_gpiote_init) refers to nrf_drv_gpiote.o(i.channel_free) for channel_free
    nrf_drv_gpiote.o(i.nrf_drv_gpiote_init) refers to nrf_drv_common.o(i.nrf_drv_common_irq_enable) for nrf_drv_common_irq_enable
    nrf_drv_gpiote.o(i.nrf_drv_gpiote_init) refers to nrf_drv_gpiote.o(.bss) for .bss
    nrf_drv_gpiote.o(i.nrf_drv_gpiote_is_init) refers to nrf_drv_gpiote.o(.bss) for .bss
    nrf_drv_gpiote.o(i.nrf_drv_gpiote_out_init) refers to nrf_drv_gpiote.o(i.channel_port_alloc) for channel_port_alloc
    nrf_drv_gpiote.o(i.nrf_drv_gpiote_out_init) refers to nrf_drv_gpiote.o(i.nrf_gpio_cfg) for nrf_gpio_cfg
    nrf_drv_gpiote.o(i.nrf_drv_gpiote_out_init) refers to nrf_drv_gpiote.o(.bss) for .bss
    nrf_drv_gpiote.o(i.nrf_drv_gpiote_out_task_addr_get) refers to nrf_drv_gpiote.o(i.channel_port_get) for channel_port_get
    nrf_drv_gpiote.o(i.nrf_drv_gpiote_out_task_disable) refers to nrf_drv_gpiote.o(.bss) for .bss
    nrf_drv_gpiote.o(i.nrf_drv_gpiote_out_task_enable) refers to nrf_drv_gpiote.o(.bss) for .bss
    nrf_drv_gpiote.o(i.nrf_drv_gpiote_out_task_force) refers to nrf_drv_gpiote.o(.bss) for .bss
    nrf_drv_gpiote.o(i.nrf_drv_gpiote_out_task_trigger) refers to nrf_drv_gpiote.o(i.channel_port_get) for channel_port_get
    nrf_drv_gpiote.o(i.nrf_drv_gpiote_out_uninit) refers to nrf_drv_gpiote.o(i.pin_in_use_by_te) for pin_in_use_by_te
    nrf_drv_gpiote.o(i.nrf_drv_gpiote_out_uninit) refers to nrf_drv_gpiote.o(i.channel_port_get) for channel_port_get
    nrf_drv_gpiote.o(i.nrf_drv_gpiote_out_uninit) refers to nrf_drv_gpiote.o(i.channel_free) for channel_free
    nrf_drv_gpiote.o(i.nrf_drv_gpiote_out_uninit) refers to nrf_drv_gpiote.o(i.nrf_gpio_cfg_default) for nrf_gpio_cfg_default
    nrf_drv_gpiote.o(i.nrf_drv_gpiote_out_uninit) refers to nrf_drv_gpiote.o(.bss) for .bss
    nrf_drv_gpiote.o(i.nrf_drv_gpiote_uninit) refers to nrf_drv_gpiote.o(i.nrf_drv_gpiote_in_uninit) for nrf_drv_gpiote_in_uninit
    nrf_drv_gpiote.o(i.nrf_drv_gpiote_uninit) refers to nrf_drv_gpiote.o(i.nrf_drv_gpiote_out_uninit) for nrf_drv_gpiote_out_uninit
    nrf_drv_gpiote.o(i.nrf_drv_gpiote_uninit) refers to nrf_drv_gpiote.o(.bss) for .bss
    nrf_drv_gpiote.o(i.nrf_gpio_cfg_default) refers to nrf_drv_gpiote.o(i.nrf_gpio_cfg) for nrf_gpio_cfg
    nrf_drv_gpiote.o(i.pin_in_use_by_port) refers to nrf_drv_gpiote.o(.bss) for .bss
    nrf_drv_gpiote.o(i.pin_in_use_by_te) refers to nrf_drv_gpiote.o(.bss) for .bss
    nrf_drv_uart.o(i.UART0_IRQHandler) refers to nrf_drv_uart.o(i.uart_irq_handler) for uart_irq_handler
    nrf_drv_uart.o(i.nrf_drv_uart_init) refers to nrf_drv_uart.o(i.nrf_gpio_cfg_output) for nrf_gpio_cfg_output
    nrf_drv_uart.o(i.nrf_drv_uart_init) refers to nrf_drv_uart.o(i.nrf_gpio_cfg_input) for nrf_gpio_cfg_input
    nrf_drv_uart.o(i.nrf_drv_uart_init) refers to nrf_drv_common.o(i.nrf_drv_common_irq_enable) for nrf_drv_common_irq_enable
    nrf_drv_uart.o(i.nrf_drv_uart_init) refers to nrf_drv_uart.o(.bss) for .bss
    nrf_drv_uart.o(i.nrf_drv_uart_init) refers to nrf_drv_uart.o(.constdata) for .constdata
    nrf_drv_uart.o(i.nrf_drv_uart_rx) refers to nrf_drv_uart.o(i.nrf_drv_uart_rx_for_uart) for nrf_drv_uart_rx_for_uart
    nrf_drv_uart.o(i.nrf_drv_uart_rx) refers to nrf_drv_uart.o(.bss) for .bss
    nrf_drv_uart.o(i.nrf_drv_uart_rx_disable) refers to nrf_drv_uart.o(.bss) for .bss
    nrf_drv_uart.o(i.nrf_drv_uart_rx_enable) refers to nrf_drv_uart.o(i.rx_enable) for rx_enable
    nrf_drv_uart.o(i.nrf_drv_uart_rx_enable) refers to nrf_drv_uart.o(.bss) for .bss
    nrf_drv_uart.o(i.nrf_drv_uart_rx_for_uart) refers to nrf_drv_uart.o(i.rx_enable) for rx_enable
    nrf_drv_uart.o(i.nrf_drv_uart_rx_for_uart) refers to nrf_drv_uart.o(i.nrf_uart_event_check) for nrf_uart_event_check
    nrf_drv_uart.o(i.nrf_drv_uart_rx_for_uart) refers to nrf_drv_uart.o(i.rx_byte) for rx_byte
    nrf_drv_uart.o(i.nrf_drv_uart_rx_for_uart) refers to nrf_drv_uart.o(.bss) for .bss
    nrf_drv_uart.o(i.nrf_drv_uart_tx) refers to nrf_drv_uart.o(i.nrf_drv_uart_tx_for_uart) for nrf_drv_uart_tx_for_uart
    nrf_drv_uart.o(i.nrf_drv_uart_tx) refers to nrf_drv_uart.o(.bss) for .bss
    nrf_drv_uart.o(i.nrf_drv_uart_tx_abort) refers to nrf_drv_uart.o(i.tx_done_event) for tx_done_event
    nrf_drv_uart.o(i.nrf_drv_uart_tx_abort) refers to nrf_drv_uart.o(.bss) for .bss
    nrf_drv_uart.o(i.nrf_drv_uart_tx_for_uart) refers to nrf_drv_uart.o(i.tx_byte) for tx_byte
    nrf_drv_uart.o(i.nrf_drv_uart_tx_for_uart) refers to nrf_drv_uart.o(i.nrf_uart_event_check) for nrf_uart_event_check
    nrf_drv_uart.o(i.nrf_drv_uart_tx_for_uart) refers to nrf_drv_uart.o(.bss) for .bss
    nrf_drv_uart.o(i.nrf_drv_uart_uninit) refers to nrf_drv_uart.o(i.nrf_gpio_cfg_default) for nrf_gpio_cfg_default
    nrf_drv_uart.o(i.nrf_drv_uart_uninit) refers to nrf_drv_uart.o(.bss) for .bss
    nrf_drv_uart.o(i.nrf_gpio_cfg_default) refers to nrf_drv_uart.o(i.nrf_gpio_cfg) for nrf_gpio_cfg
    nrf_drv_uart.o(i.nrf_gpio_cfg_input) refers to nrf_drv_uart.o(i.nrf_gpio_cfg) for nrf_gpio_cfg
    nrf_drv_uart.o(i.nrf_gpio_cfg_output) refers to nrf_drv_uart.o(i.nrf_gpio_cfg) for nrf_gpio_cfg
    nrf_drv_uart.o(i.rx_byte) refers to nrf_drv_uart.o(.bss) for .bss
    nrf_drv_uart.o(i.rx_done_event) refers to nrf_drv_uart.o(.bss) for .bss
    nrf_drv_uart.o(i.tx_byte) refers to nrf_drv_uart.o(.bss) for .bss
    nrf_drv_uart.o(i.tx_done_event) refers to nrf_drv_uart.o(.bss) for .bss
    nrf_drv_uart.o(i.uart_irq_handler) refers to nrf_drv_uart.o(i.nrf_uart_int_enable_check) for nrf_uart_int_enable_check
    nrf_drv_uart.o(i.uart_irq_handler) refers to nrf_drv_uart.o(i.nrf_uart_event_check) for nrf_uart_event_check
    nrf_drv_uart.o(i.uart_irq_handler) refers to nrf_drv_uart.o(i.rx_byte) for rx_byte
    nrf_drv_uart.o(i.uart_irq_handler) refers to nrf_drv_uart.o(i.rx_done_event) for rx_done_event
    nrf_drv_uart.o(i.uart_irq_handler) refers to nrf_drv_uart.o(i.tx_byte) for tx_byte
    nrf_drv_uart.o(i.uart_irq_handler) refers to nrf_drv_uart.o(i.tx_done_event) for tx_done_event
    nrf_drv_uart.o(i.uart_irq_handler) refers to nrf_drv_uart.o(.bss) for .bss
    pstorage.o(i.app_notify) refers to pstorage.o(.bss) for .bss
    pstorage.o(i.app_notify) refers to pstorage.o(.data) for .data
    pstorage.o(i.app_notify_error_state_transit) refers to pstorage.o(i.app_notify) for app_notify
    pstorage.o(i.app_notify_error_state_transit) refers to pstorage.o(i.sm_state_change) for sm_state_change
    pstorage.o(i.app_notify_error_state_transit) refers to pstorage.o(.bss) for .bss
    pstorage.o(i.clear_operation_execute) refers to pstorage.o(i.pstorage_flash_page_size) for pstorage_flash_page_size
    pstorage.o(i.clear_operation_execute) refers to uidiv.o(.text) for __aeabi_uidivmod
    pstorage.o(i.clear_operation_execute) refers to pstorage.o(i.sm_state_change) for sm_state_change
    pstorage.o(i.clear_operation_execute) refers to pstorage.o(.bss) for .bss
    pstorage.o(i.clear_operation_execute) refers to pstorage.o(.data) for .data
    pstorage.o(i.clear_post_processing_run) refers to pstorage.o(i.command_end_procedure_run) for command_end_procedure_run
    pstorage.o(i.clear_post_processing_run) refers to pstorage.o(i.sm_state_change) for sm_state_change
    pstorage.o(i.clear_post_processing_run) refers to pstorage.o(.bss) for .bss
    pstorage.o(i.cmd_process) refers to pstorage.o(i.clear_operation_execute) for clear_operation_execute
    pstorage.o(i.cmd_process) refers to pstorage.o(i.sm_state_change) for sm_state_change
    pstorage.o(i.cmd_process) refers to pstorage.o(.bss) for .bss
    pstorage.o(i.cmd_process) refers to pstorage.o(.data) for .data
    pstorage.o(i.cmd_queue_element_init) refers to pstorage.o(.bss) for .bss
    pstorage.o(i.cmd_queue_enqueue) refers to pstorage.o(i.cmd_process) for cmd_process
    pstorage.o(i.cmd_queue_enqueue) refers to pstorage.o(.bss) for .bss
    pstorage.o(i.cmd_queue_enqueue) refers to pstorage.o(.data) for .data
    pstorage.o(i.command_end_procedure_run) refers to pstorage.o(i.app_notify) for app_notify
    pstorage.o(i.command_end_procedure_run) refers to pstorage.o(i.cmd_queue_element_init) for cmd_queue_element_init
    pstorage.o(i.command_end_procedure_run) refers to pstorage.o(i.sm_state_change) for sm_state_change
    pstorage.o(i.command_end_procedure_run) refers to pstorage.o(.bss) for .bss
    pstorage.o(i.data_page_erase_state_run) refers to pstorage.o(i.is_page_erase_required) for is_page_erase_required
    pstorage.o(i.data_page_erase_state_run) refers to pstorage.o(i.swap_sub_state_state_change) for swap_sub_state_state_change
    pstorage.o(i.data_page_erase_state_run) refers to pstorage.o(i.clear_post_processing_run) for clear_post_processing_run
    pstorage.o(i.data_page_erase_state_run) refers to pstorage.o(i.swap_sub_state_err_busy_process) for swap_sub_state_err_busy_process
    pstorage.o(i.data_page_erase_state_run) refers to pstorage.o(.data) for .data
    pstorage.o(i.data_to_swap_write_state_run) refers to pstorage.o(i.swap_sub_state_state_change) for swap_sub_state_state_change
    pstorage.o(i.data_to_swap_write_state_run) refers to pstorage.o(i.swap_sub_state_err_busy_process) for swap_sub_state_err_busy_process
    pstorage.o(i.data_to_swap_write_state_run) refers to pstorage.o(.data) for .data
    pstorage.o(i.flash_api_err_code_process) refers to pstorage.o(i.app_notify_error_state_transit) for app_notify_error_state_transit
    pstorage.o(i.flash_api_err_code_process) refers to pstorage.o(.data) for .data
    pstorage.o(i.flash_operation_success_run) refers to pstorage.o(i.store_cmd_flash_write_execute) for store_cmd_flash_write_execute
    pstorage.o(i.flash_operation_success_run) refers to pstorage.o(i.command_end_procedure_run) for command_end_procedure_run
    pstorage.o(i.flash_operation_success_run) refers to pstorage.o(i.main_state_err_busy_process) for main_state_err_busy_process
    pstorage.o(i.flash_operation_success_run) refers to pstorage.o(i.is_page_erase_required) for is_page_erase_required
    pstorage.o(i.flash_operation_success_run) refers to pstorage.o(i.sm_state_change) for sm_state_change
    pstorage.o(i.flash_operation_success_run) refers to pstorage.o(i.clear_post_processing_run) for clear_post_processing_run
    pstorage.o(i.flash_operation_success_run) refers to pstorage.o(.data) for .data
    pstorage.o(i.flash_operation_success_run) refers to pstorage.o(.bss) for .bss
    pstorage.o(i.flash_operation_success_run) refers to pstorage.o(.constdata) for .constdata
    pstorage.o(i.flash_page_erase) refers to pstorage.o(i.flash_api_err_code_process) for flash_api_err_code_process
    pstorage.o(i.flash_write) refers to pstorage.o(i.flash_api_err_code_process) for flash_api_err_code_process
    pstorage.o(i.head_restore_state_run) refers to pstorage.o(i.pstorage_flash_page_size) for pstorage_flash_page_size
    pstorage.o(i.head_restore_state_run) refers to uidiv.o(.text) for __aeabi_uidivmod
    pstorage.o(i.head_restore_state_run) refers to pstorage.o(i.is_page_erase_required) for is_page_erase_required
    pstorage.o(i.head_restore_state_run) refers to pstorage.o(i.swap_sub_state_state_change) for swap_sub_state_state_change
    pstorage.o(i.head_restore_state_run) refers to pstorage.o(i.clear_post_processing_run) for clear_post_processing_run
    pstorage.o(i.head_restore_state_run) refers to pstorage.o(i.swap_sub_state_err_busy_process) for swap_sub_state_err_busy_process
    pstorage.o(i.head_restore_state_run) refers to pstorage.o(.data) for .data
    pstorage.o(i.head_restore_state_run) refers to pstorage.o(.bss) for .bss
    pstorage.o(i.is_page_erase_required) refers to pstorage.o(i.pstorage_flash_page_size) for pstorage_flash_page_size
    pstorage.o(i.is_page_erase_required) refers to uidiv.o(.text) for __aeabi_uidivmod
    pstorage.o(i.is_page_erase_required) refers to pstorage.o(.bss) for .bss
    pstorage.o(i.is_page_erase_required) refers to pstorage.o(.data) for .data
    pstorage.o(i.main_state_err_busy_process) refers to pstorage.o(i.sm_state_change) for sm_state_change
    pstorage.o(i.main_state_err_busy_process) refers to pstorage.o(.data) for .data
    pstorage.o(i.pstorage_access_status_get) refers to pstorage.o(.data) for .data
    pstorage.o(i.pstorage_access_status_get) refers to pstorage.o(.bss) for .bss
    pstorage.o(i.pstorage_block_identifier_get) refers to pstorage.o(.data) for .data
    pstorage.o(i.pstorage_block_identifier_get) refers to pstorage.o(.bss) for .bss
    pstorage.o(i.pstorage_clear) refers to pstorage.o(i.is_word_aligned) for is_word_aligned
    pstorage.o(i.pstorage_clear) refers to uidiv.o(.text) for __aeabi_uidivmod
    pstorage.o(i.pstorage_clear) refers to pstorage.o(i.cmd_queue_enqueue) for cmd_queue_enqueue
    pstorage.o(i.pstorage_clear) refers to pstorage.o(.data) for .data
    pstorage.o(i.pstorage_clear) refers to pstorage.o(.bss) for .bss
    pstorage.o(i.pstorage_flash_page_end) refers to pstorage.o(i.pstorage_flash_page_size) for pstorage_flash_page_size
    pstorage.o(i.pstorage_flash_page_end) refers to uidiv.o(.text) for __aeabi_uidivmod
    pstorage.o(i.pstorage_init) refers to pstorage.o(i.cmd_queue_element_init) for cmd_queue_element_init
    pstorage.o(i.pstorage_init) refers to pstorage.o(i.pstorage_flash_page_end) for pstorage_flash_page_end
    pstorage.o(i.pstorage_init) refers to pstorage.o(i.pstorage_flash_page_size) for pstorage_flash_page_size
    pstorage.o(i.pstorage_init) refers to pstorage.o(.bss) for .bss
    pstorage.o(i.pstorage_init) refers to pstorage.o(.data) for .data
    pstorage.o(i.pstorage_load) refers to pstorage.o(i.is_word_aligned) for is_word_aligned
    pstorage.o(i.pstorage_load) refers to memmovea.o(.text) for __aeabi_memcpy
    pstorage.o(i.pstorage_load) refers to pstorage.o(.data) for .data
    pstorage.o(i.pstorage_load) refers to pstorage.o(.bss) for .bss
    pstorage.o(i.pstorage_register) refers to pstorage.o(i.pstorage_flash_page_size) for pstorage_flash_page_size
    pstorage.o(i.pstorage_register) refers to pstorage.o(i.pstorage_flash_page_end) for pstorage_flash_page_end
    pstorage.o(i.pstorage_register) refers to idiv.o(.text) for __aeabi_idivmod
    pstorage.o(i.pstorage_register) refers to pstorage.o(.data) for .data
    pstorage.o(i.pstorage_register) refers to pstorage.o(.bss) for .bss
    pstorage.o(i.pstorage_store) refers to pstorage.o(i.is_word_aligned) for is_word_aligned
    pstorage.o(i.pstorage_store) refers to pstorage.o(i.cmd_queue_enqueue) for cmd_queue_enqueue
    pstorage.o(i.pstorage_store) refers to pstorage.o(.data) for .data
    pstorage.o(i.pstorage_store) refers to pstorage.o(.bss) for .bss
    pstorage.o(i.pstorage_sys_event_handler) refers to pstorage.o(i.sm_state_change) for sm_state_change
    pstorage.o(i.pstorage_sys_event_handler) refers to pstorage.o(i.swap_sub_state_state_change) for swap_sub_state_state_change
    pstorage.o(i.pstorage_sys_event_handler) refers to pstorage.o(i.app_notify_error_state_transit) for app_notify_error_state_transit
    pstorage.o(i.pstorage_sys_event_handler) refers to pstorage.o(i.flash_operation_success_run) for flash_operation_success_run
    pstorage.o(i.pstorage_sys_event_handler) refers to pstorage.o(.data) for .data
    pstorage.o(i.pstorage_update) refers to pstorage.o(i.is_word_aligned) for is_word_aligned
    pstorage.o(i.pstorage_update) refers to pstorage.o(i.cmd_queue_enqueue) for cmd_queue_enqueue
    pstorage.o(i.pstorage_update) refers to pstorage.o(.data) for .data
    pstorage.o(i.pstorage_update) refers to pstorage.o(.bss) for .bss
    pstorage.o(i.sm_state_change) refers to pstorage.o(i.flash_page_erase) for flash_page_erase
    pstorage.o(i.sm_state_change) refers to pstorage.o(i.cmd_process) for cmd_process
    pstorage.o(i.sm_state_change) refers to pstorage.o(i.store_cmd_flash_write_execute) for store_cmd_flash_write_execute
    pstorage.o(i.sm_state_change) refers to pstorage.o(i.state_data_erase_swap_entry_run) for state_data_erase_swap_entry_run
    pstorage.o(i.sm_state_change) refers to pstorage.o(.data) for .data
    pstorage.o(i.sm_state_change) refers to pstorage.o(.bss) for .bss
    pstorage.o(i.state_data_erase_swap_entry_run) refers to pstorage.o(i.pstorage_flash_page_size) for pstorage_flash_page_size
    pstorage.o(i.state_data_erase_swap_entry_run) refers to uidiv.o(.text) for __aeabi_uidivmod
    pstorage.o(i.state_data_erase_swap_entry_run) refers to pstorage.o(i.swap_sub_state_state_change) for swap_sub_state_state_change
    pstorage.o(i.state_data_erase_swap_entry_run) refers to pstorage.o(.data) for .data
    pstorage.o(i.state_data_erase_swap_entry_run) refers to pstorage.o(.bss) for .bss
    pstorage.o(i.state_erase_data_page_entry_run) refers to pstorage.o(i.flash_page_erase) for flash_page_erase
    pstorage.o(i.state_erase_data_page_entry_run) refers to pstorage.o(.data) for .data
    pstorage.o(i.state_restore_head_entry_run) refers to pstorage.o(i.pstorage_flash_page_end) for pstorage_flash_page_end
    pstorage.o(i.state_restore_head_entry_run) refers to pstorage.o(i.pstorage_flash_page_size) for pstorage_flash_page_size
    pstorage.o(i.state_restore_head_entry_run) refers to pstorage.o(i.flash_write) for flash_write
    pstorage.o(i.state_restore_head_entry_run) refers to pstorage.o(.data) for .data
    pstorage.o(i.state_restore_tail_entry_run) refers to pstorage.o(i.pstorage_flash_page_size) for pstorage_flash_page_size
    pstorage.o(i.state_restore_tail_entry_run) refers to uidiv.o(.text) for __aeabi_uidivmod
    pstorage.o(i.state_restore_tail_entry_run) refers to pstorage.o(i.pstorage_flash_page_end) for pstorage_flash_page_end
    pstorage.o(i.state_restore_tail_entry_run) refers to pstorage.o(i.flash_write) for flash_write
    pstorage.o(i.state_restore_tail_entry_run) refers to pstorage.o(.bss) for .bss
    pstorage.o(i.state_restore_tail_entry_run) refers to pstorage.o(.data) for .data
    pstorage.o(i.state_swap_erase_entry_run) refers to pstorage.o(i.pstorage_flash_page_size) for pstorage_flash_page_size
    pstorage.o(i.state_swap_erase_entry_run) refers to pstorage.o(i.pstorage_flash_page_end) for pstorage_flash_page_end
    pstorage.o(i.state_swap_erase_entry_run) refers to uidiv.o(.text) for __aeabi_uidivmod
    pstorage.o(i.state_swap_erase_entry_run) refers to pstorage.o(i.flash_page_erase) for flash_page_erase
    pstorage.o(i.state_write_data_swap_entry_run) refers to pstorage.o(i.pstorage_flash_page_size) for pstorage_flash_page_size
    pstorage.o(i.state_write_data_swap_entry_run) refers to pstorage.o(i.pstorage_flash_page_end) for pstorage_flash_page_end
    pstorage.o(i.state_write_data_swap_entry_run) refers to pstorage.o(i.flash_write) for flash_write
    pstorage.o(i.state_write_data_swap_entry_run) refers to pstorage.o(.data) for .data
    pstorage.o(i.store_cmd_flash_write_execute) refers to pstorage.o(i.pstorage_flash_page_size) for pstorage_flash_page_size
    pstorage.o(i.store_cmd_flash_write_execute) refers to pstorage.o(i.flash_write) for flash_write
    pstorage.o(i.store_cmd_flash_write_execute) refers to pstorage.o(.bss) for .bss
    pstorage.o(i.store_cmd_flash_write_execute) refers to pstorage.o(.data) for .data
    pstorage.o(i.swap_erase_state_run) refers to pstorage.o(i.swap_sub_state_state_change) for swap_sub_state_state_change
    pstorage.o(i.swap_erase_state_run) refers to pstorage.o(i.swap_sub_state_err_busy_process) for swap_sub_state_err_busy_process
    pstorage.o(i.swap_erase_state_run) refers to pstorage.o(.data) for .data
    pstorage.o(i.swap_sub_state_err_busy_process) refers to pstorage.o(i.swap_sub_state_state_change) for swap_sub_state_state_change
    pstorage.o(i.swap_sub_state_err_busy_process) refers to pstorage.o(.data) for .data
    pstorage.o(i.swap_sub_state_state_change) refers to pstorage.o(.data) for .data
    pstorage.o(i.swap_sub_state_state_change) refers to pstorage.o(.constdata) for .constdata
    pstorage.o(i.tail_restore_state_run) refers to pstorage.o(i.clear_post_processing_run) for clear_post_processing_run
    pstorage.o(i.tail_restore_state_run) refers to pstorage.o(i.swap_sub_state_err_busy_process) for swap_sub_state_err_busy_process
    pstorage.o(i.tail_restore_state_run) refers to pstorage.o(.data) for .data
    pstorage.o(.constdata) refers to pstorage.o(i.state_swap_erase_entry_run) for state_swap_erase_entry_run
    pstorage.o(.constdata) refers to pstorage.o(i.state_write_data_swap_entry_run) for state_write_data_swap_entry_run
    pstorage.o(.constdata) refers to pstorage.o(i.state_erase_data_page_entry_run) for state_erase_data_page_entry_run
    pstorage.o(.constdata) refers to pstorage.o(i.state_restore_tail_entry_run) for state_restore_tail_entry_run
    pstorage.o(.constdata) refers to pstorage.o(i.state_restore_head_entry_run) for state_restore_head_entry_run
    pstorage.o(.constdata) refers to pstorage.o(i.swap_erase_state_run) for swap_erase_state_run
    pstorage.o(.constdata) refers to pstorage.o(i.data_to_swap_write_state_run) for data_to_swap_write_state_run
    pstorage.o(.constdata) refers to pstorage.o(i.data_page_erase_state_run) for data_page_erase_state_run
    pstorage.o(.constdata) refers to pstorage.o(i.tail_restore_state_run) for tail_restore_state_run
    pstorage.o(.constdata) refers to pstorage.o(i.head_restore_state_run) for head_restore_state_run
    nrf_drv_spi.o(i.SPI0_TWI0_IRQHandler) refers to nrf_drv_spi.o(i.transfer_byte) for transfer_byte
    nrf_drv_spi.o(i.SPI0_TWI0_IRQHandler) refers to nrf_drv_spi.o(i.nrf_gpio_pin_set) for nrf_gpio_pin_set
    nrf_drv_spi.o(i.SPI0_TWI0_IRQHandler) refers to nrf_drv_spi.o(.bss) for .bss
    nrf_drv_spi.o(i.nrf_drv_spi_init) refers to nrf_drv_spi.o(i.nrf_gpio_pin_set) for nrf_gpio_pin_set
    nrf_drv_spi.o(i.nrf_drv_spi_init) refers to nrf_drv_spi.o(i.nrf_gpio_cfg_output) for nrf_gpio_cfg_output
    nrf_drv_spi.o(i.nrf_drv_spi_init) refers to nrf_drv_spi.o(i.nrf_gpio_cfg) for nrf_gpio_cfg
    nrf_drv_spi.o(i.nrf_drv_spi_init) refers to nrf_drv_common.o(i.nrf_drv_common_irq_enable) for nrf_drv_common_irq_enable
    nrf_drv_spi.o(i.nrf_drv_spi_init) refers to nrf_drv_spi.o(.bss) for .bss
    nrf_drv_spi.o(i.nrf_drv_spi_init) refers to nrf_drv_spi.o(.constdata) for .constdata
    nrf_drv_spi.o(i.nrf_drv_spi_transfer) refers to nrf_drv_spi.o(i.nrf_drv_spi_xfer) for nrf_drv_spi_xfer
    nrf_drv_spi.o(i.nrf_drv_spi_uninit) refers to nrf_drv_spi.o(.bss) for .bss
    nrf_drv_spi.o(i.nrf_drv_spi_xfer) refers to nrf_drv_spi.o(i.spi_xfer) for spi_xfer
    nrf_drv_spi.o(i.nrf_drv_spi_xfer) refers to nrf_drv_spi.o(.bss) for .bss
    nrf_drv_spi.o(i.nrf_gpio_cfg_output) refers to nrf_drv_spi.o(i.nrf_gpio_cfg) for nrf_gpio_cfg
    nrf_drv_spi.o(i.spi_xfer) refers to nrf_drv_spi.o(i.transfer_byte) for transfer_byte
    nrf_drv_spi.o(i.spi_xfer) refers to nrf_drv_spi.o(i.nrf_gpio_pin_set) for nrf_gpio_pin_set
    nrf_drv_clock.o(i.nrf_drv_clock_hfclk_release) refers to nrf_drv_clock.o(i.current_int_priority_get) for current_int_priority_get
    nrf_drv_clock.o(i.nrf_drv_clock_hfclk_release) refers to app_error.o(i.app_error_handler_bare) for app_error_handler_bare
    nrf_drv_clock.o(i.nrf_drv_clock_hfclk_release) refers to nrf_drv_clock.o(.bss) for .bss
    nrf_drv_clock.o(i.nrf_drv_clock_hfclk_request) refers to nrf_drv_clock.o(i.current_int_priority_get) for current_int_priority_get
    nrf_drv_clock.o(i.nrf_drv_clock_hfclk_request) refers to app_error.o(i.app_error_handler_bare) for app_error_handler_bare
    nrf_drv_clock.o(i.nrf_drv_clock_hfclk_request) refers to nrf_drv_clock.o(.bss) for .bss
    nrf_drv_clock.o(i.nrf_drv_clock_init) refers to nrf_drv_clock.o(.bss) for .bss
    nrf_drv_clock.o(i.nrf_drv_clock_on_soc_event) refers to nrf_drv_clock.o(.bss) for .bss
    nrf_drv_clock.o(i.nrf_drv_clock_uninit) refers to nrf_drv_clock.o(.bss) for .bss
    nrf_soc.o(i.sd_nvic_critical_region_enter) refers to nrf_soc.o(.data) for .data
    nrf_soc.o(i.sd_nvic_critical_region_exit) refers to nrf_soc.o(.data) for .data
    app_uart_fifo.o(i.app_uart_close) refers to nrf_drv_uart.o(i.nrf_drv_uart_uninit) for nrf_drv_uart_uninit
    app_uart_fifo.o(i.app_uart_flush) refers to app_fifo.o(i.app_fifo_flush) for app_fifo_flush
    app_uart_fifo.o(i.app_uart_flush) refers to app_uart_fifo.o(.bss) for .bss
    app_uart_fifo.o(i.app_uart_get) refers to nrf_drv_uart.o(i.nrf_drv_uart_rx) for nrf_drv_uart_rx
    app_uart_fifo.o(i.app_uart_get) refers to app_fifo.o(i.app_fifo_get) for app_fifo_get
    app_uart_fifo.o(i.app_uart_get) refers to app_uart_fifo.o(.bss) for .bss
    app_uart_fifo.o(i.app_uart_get) refers to app_uart_fifo.o(.data) for .data
    app_uart_fifo.o(i.app_uart_init) refers to app_fifo.o(i.app_fifo_init) for app_fifo_init
    app_uart_fifo.o(i.app_uart_init) refers to memmovea.o(.text) for __aeabi_memcpy4
    app_uart_fifo.o(i.app_uart_init) refers to nrf_drv_uart.o(i.nrf_drv_uart_init) for nrf_drv_uart_init
    app_uart_fifo.o(i.app_uart_init) refers to nrf_drv_uart.o(i.nrf_drv_uart_rx_enable) for nrf_drv_uart_rx_enable
    app_uart_fifo.o(i.app_uart_init) refers to nrf_drv_uart.o(i.nrf_drv_uart_rx) for nrf_drv_uart_rx
    app_uart_fifo.o(i.app_uart_init) refers to app_uart_fifo.o(.data) for .data
    app_uart_fifo.o(i.app_uart_init) refers to app_uart_fifo.o(.bss) for .bss
    app_uart_fifo.o(i.app_uart_init) refers to app_uart_fifo.o(.constdata) for .constdata
    app_uart_fifo.o(i.app_uart_init) refers to app_uart_fifo.o(i.uart_event_handler) for uart_event_handler
    app_uart_fifo.o(i.app_uart_put) refers to nrf_drv_uart.o(i.nrf_drv_uart_tx) for nrf_drv_uart_tx
    app_uart_fifo.o(i.app_uart_put) refers to app_fifo.o(i.app_fifo_put) for app_fifo_put
    app_uart_fifo.o(i.app_uart_put) refers to app_uart_fifo.o(.data) for .data
    app_uart_fifo.o(i.app_uart_put) refers to app_uart_fifo.o(.bss) for .bss
    app_uart_fifo.o(i.uart_event_handler) refers to app_fifo.o(i.app_fifo_get) for app_fifo_get
    app_uart_fifo.o(i.uart_event_handler) refers to app_fifo.o(i.app_fifo_put) for app_fifo_put
    app_uart_fifo.o(i.uart_event_handler) refers to nrf_drv_uart.o(i.nrf_drv_uart_rx) for nrf_drv_uart_rx
    app_uart_fifo.o(i.uart_event_handler) refers to nrf_drv_uart.o(i.nrf_drv_uart_tx) for nrf_drv_uart_tx
    app_uart_fifo.o(i.uart_event_handler) refers to app_uart_fifo.o(.data) for .data
    app_uart_fifo.o(i.uart_event_handler) refers to app_uart_fifo.o(.bss) for .bss
    segger_rtt.o(i.SEGGER_RTT_ConfigDownBuffer) refers to segger_rtt.o(i._DoInit) for _DoInit
    segger_rtt.o(i.SEGGER_RTT_ConfigDownBuffer) refers to segger_rtt.o(.bss) for .bss
    segger_rtt.o(i.SEGGER_RTT_ConfigUpBuffer) refers to segger_rtt.o(i._DoInit) for _DoInit
    segger_rtt.o(i.SEGGER_RTT_ConfigUpBuffer) refers to segger_rtt.o(.bss) for .bss
    segger_rtt.o(i.SEGGER_RTT_GetKey) refers to segger_rtt.o(i.SEGGER_RTT_Read) for SEGGER_RTT_Read
    segger_rtt.o(i.SEGGER_RTT_HasData) refers to segger_rtt.o(.bss) for .bss
    segger_rtt.o(i.SEGGER_RTT_HasKey) refers to segger_rtt.o(i._DoInit) for _DoInit
    segger_rtt.o(i.SEGGER_RTT_HasKey) refers to segger_rtt.o(.bss) for .bss
    segger_rtt.o(i.SEGGER_RTT_Init) refers to segger_rtt.o(i._DoInit) for _DoInit
    segger_rtt.o(i.SEGGER_RTT_Init) refers to segger_rtt.o(.bss) for .bss
    segger_rtt.o(i.SEGGER_RTT_Read) refers to segger_rtt.o(i.SEGGER_RTT_ReadNoLock) for SEGGER_RTT_ReadNoLock
    segger_rtt.o(i.SEGGER_RTT_ReadNoLock) refers to segger_rtt.o(i._DoInit) for _DoInit
    segger_rtt.o(i.SEGGER_RTT_ReadNoLock) refers to memmovea.o(.text) for __aeabi_memcpy
    segger_rtt.o(i.SEGGER_RTT_ReadNoLock) refers to segger_rtt.o(.bss) for .bss
    segger_rtt.o(i.SEGGER_RTT_SetNameDownBuffer) refers to segger_rtt.o(i._DoInit) for _DoInit
    segger_rtt.o(i.SEGGER_RTT_SetNameDownBuffer) refers to segger_rtt.o(.bss) for .bss
    segger_rtt.o(i.SEGGER_RTT_SetNameUpBuffer) refers to segger_rtt.o(i._DoInit) for _DoInit
    segger_rtt.o(i.SEGGER_RTT_SetNameUpBuffer) refers to segger_rtt.o(.bss) for .bss
    segger_rtt.o(i.SEGGER_RTT_SetTerminal) refers to segger_rtt.o(i._DoInit) for _DoInit
    segger_rtt.o(i.SEGGER_RTT_SetTerminal) refers to segger_rtt.o(i._GetAvailWriteSpace) for _GetAvailWriteSpace
    segger_rtt.o(i.SEGGER_RTT_SetTerminal) refers to segger_rtt.o(i._WriteNoCheck) for _WriteNoCheck
    segger_rtt.o(i.SEGGER_RTT_SetTerminal) refers to segger_rtt.o(i._WriteBlocking) for _WriteBlocking
    segger_rtt.o(i.SEGGER_RTT_SetTerminal) refers to segger_rtt.o(.bss) for .bss
    segger_rtt.o(i.SEGGER_RTT_SetTerminal) refers to segger_rtt.o(.data) for .data
    segger_rtt.o(i.SEGGER_RTT_TerminalOut) refers to segger_rtt.o(i._DoInit) for _DoInit
    segger_rtt.o(i.SEGGER_RTT_TerminalOut) refers to strlen.o(.text) for strlen
    segger_rtt.o(i.SEGGER_RTT_TerminalOut) refers to segger_rtt.o(i._GetAvailWriteSpace) for _GetAvailWriteSpace
    segger_rtt.o(i.SEGGER_RTT_TerminalOut) refers to segger_rtt.o(i._PostTerminalSwitch) for _PostTerminalSwitch
    segger_rtt.o(i.SEGGER_RTT_TerminalOut) refers to segger_rtt.o(i._WriteBlocking) for _WriteBlocking
    segger_rtt.o(i.SEGGER_RTT_TerminalOut) refers to segger_rtt.o(.bss) for .bss
    segger_rtt.o(i.SEGGER_RTT_TerminalOut) refers to segger_rtt.o(.data) for .data
    segger_rtt.o(i.SEGGER_RTT_WaitKey) refers to segger_rtt.o(i.SEGGER_RTT_GetKey) for SEGGER_RTT_GetKey
    segger_rtt.o(i.SEGGER_RTT_Write) refers to segger_rtt.o(i._DoInit) for _DoInit
    segger_rtt.o(i.SEGGER_RTT_Write) refers to segger_rtt.o(i.SEGGER_RTT_WriteNoLock) for SEGGER_RTT_WriteNoLock
    segger_rtt.o(i.SEGGER_RTT_Write) refers to segger_rtt.o(.bss) for .bss
    segger_rtt.o(i.SEGGER_RTT_WriteNoLock) refers to segger_rtt.o(i._GetAvailWriteSpace) for _GetAvailWriteSpace
    segger_rtt.o(i.SEGGER_RTT_WriteNoLock) refers to segger_rtt.o(i._WriteNoCheck) for _WriteNoCheck
    segger_rtt.o(i.SEGGER_RTT_WriteNoLock) refers to segger_rtt.o(i._WriteBlocking) for _WriteBlocking
    segger_rtt.o(i.SEGGER_RTT_WriteNoLock) refers to segger_rtt.o(.bss) for .bss
    segger_rtt.o(i.SEGGER_RTT_WriteSkipNoLock) refers to memmovea.o(.text) for __aeabi_memcpy
    segger_rtt.o(i.SEGGER_RTT_WriteSkipNoLock) refers to segger_rtt.o(.bss) for .bss
    segger_rtt.o(i.SEGGER_RTT_WriteString) refers to strlen.o(.text) for strlen
    segger_rtt.o(i.SEGGER_RTT_WriteString) refers to segger_rtt.o(i.SEGGER_RTT_Write) for SEGGER_RTT_Write
    segger_rtt.o(i._DoInit) refers to strcpy.o(.text) for strcpy
    segger_rtt.o(i._DoInit) refers to segger_rtt.o(.bss) for .bss
    segger_rtt.o(i._PostTerminalSwitch) refers to segger_rtt.o(i._WriteBlocking) for _WriteBlocking
    segger_rtt.o(i._PostTerminalSwitch) refers to segger_rtt.o(.data) for .data
    segger_rtt.o(i._WriteBlocking) refers to memmovea.o(.text) for __aeabi_memcpy
    segger_rtt.o(i._WriteNoCheck) refers to memmovea.o(.text) for __aeabi_memcpy
    app_error.o(i.app_error_handler) refers to app_error.o(i.app_error_fault_handler) for app_error_fault_handler
    app_error.o(i.app_error_handler_bare) refers to app_error.o(i.app_error_fault_handler) for app_error_fault_handler
    app_error.o(i.app_error_save_and_stop) refers to app_error.o(.bss) for .bss
    nrf_log.o(i.log_hex) refers to nrf_log.o(.bss) for .bss
    nrf_log.o(i.log_hex_char) refers to nrf_log.o(.data) for .data
    nrf_log.o(i.log_uart_init) refers to app_uart_fifo.o(i.app_uart_init) for app_uart_init
    nrf_log.o(i.log_uart_init) refers to nrf_log.o(.data) for .data
    nrf_log.o(i.log_uart_init) refers to nrf_log.o(.constdata) for .constdata
    nrf_log.o(i.log_uart_init) refers to nrf_log.o(.bss) for .bss
    nrf_log.o(i.log_uart_init) refers to nrf_log.o(i.uart_error_cb) for uart_error_cb
    nrf_log.o(i.log_uart_printf) refers to printfa.o(i.__0vprintf) for vprintf
    nrf_log.o(i.log_uart_write_hex) refers to app_uart_fifo.o(i.app_uart_put) for app_uart_put
    nrf_log.o(i.log_uart_write_hex_char) refers to app_uart_fifo.o(i.app_uart_put) for app_uart_put
    nrf_log.o(i.uart_error_cb) refers to app_error.o(i.app_error_handler_bare) for app_error_handler_bare
    retarget.o(i.fgetc) refers to app_uart_fifo.o(i.app_uart_get) for app_uart_get
    retarget.o(i.fputc) refers to app_uart_fifo.o(i.app_uart_put) for app_uart_put
    app_timer_freertos.o(i.app_timer_callback) refers to timers.o(i.pvTimerGetTimerID) for pvTimerGetTimerID
    app_timer_freertos.o(i.app_timer_create) refers to timers.o(i.xTimerCreate) for xTimerCreate
    app_timer_freertos.o(i.app_timer_create) refers to app_timer_freertos.o(i.app_timer_callback) for app_timer_callback
    app_timer_freertos.o(i.app_timer_init) refers to app_timer_freertos.o(.data) for .data
    app_timer_freertos.o(i.app_timer_start) refers to uidiv.o(.text) for __aeabi_uidivmod
    app_timer_freertos.o(i.app_timer_start) refers to timers.o(i.xTimerIsTimerActive) for xTimerIsTimerActive
    app_timer_freertos.o(i.app_timer_start) refers to timers.o(i.xTimerGenericCommand) for xTimerGenericCommand
    app_timer_freertos.o(i.app_timer_start) refers to tasks.o(i.xTaskGetTickCountFromISR) for xTaskGetTickCountFromISR
    app_timer_freertos.o(i.app_timer_start) refers to tasks.o(i.xTaskGetTickCount) for xTaskGetTickCount
    app_timer_freertos.o(i.app_timer_start) refers to app_timer_freertos.o(.data) for .data
    app_timer_freertos.o(i.app_timer_stop) refers to timers.o(i.xTimerGenericCommand) for xTimerGenericCommand
    app_util_platform.o(i.critical_region_enter) refers to app_util_platform.o(.data) for .data
    app_util_platform.o(i.critical_region_exit) refers to app_util_platform.o(.data) for .data
    app_fifo.o(i.app_fifo_get) refers to app_fifo.o(i.fifo_get) for fifo_get
    app_fifo.o(i.app_fifo_put) refers to app_fifo.o(i.fifo_put) for fifo_put
    app_fifo.o(i.app_fifo_read) refers to app_fifo.o(i.fifo_get) for fifo_get
    app_fifo.o(i.app_fifo_write) refers to app_fifo.o(i.fifo_put) for fifo_put
    softdevice_handler.o(i.SWI2_IRQHandler) refers to app_error.o(i.app_error_handler_bare) for app_error_handler_bare
    softdevice_handler.o(i.SWI2_IRQHandler) refers to softdevice_handler.o(i.intern_softdevice_events_execute) for intern_softdevice_events_execute
    softdevice_handler.o(i.SWI2_IRQHandler) refers to softdevice_handler.o(.data) for .data
    softdevice_handler.o(i.intern_softdevice_events_execute) refers to app_error.o(i.app_error_handler_bare) for app_error_handler_bare
    softdevice_handler.o(i.intern_softdevice_events_execute) refers to nrf_drv_clock.o(i.nrf_drv_clock_on_soc_event) for nrf_drv_clock_on_soc_event
    softdevice_handler.o(i.intern_softdevice_events_execute) refers to softdevice_handler.o(.data) for .data
    softdevice_handler.o(i.softdevice_ble_evt_handler_set) refers to softdevice_handler.o(.data) for .data
    softdevice_handler.o(i.softdevice_enable_get_default_config) refers to memseta.o(.text) for __aeabi_memclr4
    softdevice_handler.o(i.softdevice_fault_handler) refers to app_error.o(i.app_error_fault_handler) for app_error_fault_handler
    softdevice_handler.o(i.softdevice_handler_init) refers to softdevice_handler.o(.data) for .data
    softdevice_handler.o(i.softdevice_handler_init) refers to softdevice_handler.o(i.softdevice_fault_handler) for softdevice_fault_handler
    softdevice_handler.o(i.softdevice_handler_isEnabled) refers to softdevice_handler.o(.data) for .data
    softdevice_handler.o(i.softdevice_handler_sd_disable) refers to softdevice_handler.o(.data) for .data
    softdevice_handler.o(i.softdevice_sys_evt_handler_set) refers to softdevice_handler.o(.data) for .data
    heatshrink_decoder.o(i.heatshrink_decoder_poll) refers to ble_srv_common.o(i.__ARM_common_switch8) for __ARM_common_switch8
    heatshrink_decoder.o(i.heatshrink_decoder_poll) refers to heatshrink_decoder.o(i.get_bits) for get_bits
    heatshrink_decoder.o(i.heatshrink_decoder_poll) refers to heatshrink_decoder.o(i.push_byte) for push_byte
    heatshrink_decoder.o(i.heatshrink_decoder_poll) refers to heatshrink_decoder.o(i.st_yield_backref) for st_yield_backref
    heatshrink_decoder.o(i.heatshrink_decoder_reset) refers to memseta.o(.text) for __aeabi_memclr
    heatshrink_decoder.o(i.heatshrink_decoder_sink) refers to memmovea.o(.text) for __aeabi_memcpy
    heatshrink_decoder.o(i.st_yield_backref) refers to heatshrink_decoder.o(i.push_byte) for push_byte
    heatshrink_encoder.o(i.add_tag_bit) refers to heatshrink_encoder.o(i.push_bits) for push_bits
    heatshrink_encoder.o(i.heatshrink_encoder_poll) refers to ble_srv_common.o(i.__ARM_common_switch8) for __ARM_common_switch8
    heatshrink_encoder.o(i.heatshrink_encoder_poll) refers to memseta.o(.text) for __aeabi_memset
    heatshrink_encoder.o(i.heatshrink_encoder_poll) refers to heatshrink_encoder.o(i.st_step_search) for st_step_search
    heatshrink_encoder.o(i.heatshrink_encoder_poll) refers to heatshrink_encoder.o(i.can_take_byte) for can_take_byte
    heatshrink_encoder.o(i.heatshrink_encoder_poll) refers to heatshrink_encoder.o(i.add_tag_bit) for add_tag_bit
    heatshrink_encoder.o(i.heatshrink_encoder_poll) refers to heatshrink_encoder.o(i.push_bits) for push_bits
    heatshrink_encoder.o(i.heatshrink_encoder_poll) refers to heatshrink_encoder.o(i.push_outgoing_bits) for push_outgoing_bits
    heatshrink_encoder.o(i.heatshrink_encoder_poll) refers to memmovea.o(.text) for __aeabi_memmove
    heatshrink_encoder.o(i.heatshrink_encoder_reset) refers to memseta.o(.text) for __aeabi_memclr
    heatshrink_encoder.o(i.heatshrink_encoder_sink) refers to memmovea.o(.text) for __aeabi_memcpy
    heatshrink_encoder.o(i.push_outgoing_bits) refers to heatshrink_encoder.o(i.push_bits) for push_bits
    heatshrink_encoder.o(i.st_step_search) refers to heatshrink_encoder.o(i.find_longest_match) for find_longest_match
    event_groups.o(i.ulPortDisableISR) refers to softdevice_handler.o(i.softdevice_handler_isEnabled) for softdevice_handler_isEnabled
    event_groups.o(i.ulPortDisableISR) refers to app_error.o(i.app_error_handler_bare) for app_error_handler_bare
    event_groups.o(i.vEventGroupClearBitsCallback) refers to event_groups.o(i.xEventGroupClearBits) for xEventGroupClearBits
    event_groups.o(i.vEventGroupDelete) refers to tasks.o(i.vTaskSuspendAll) for vTaskSuspendAll
    event_groups.o(i.vEventGroupDelete) refers to tasks.o(i.xTaskRemoveFromUnorderedEventList) for xTaskRemoveFromUnorderedEventList
    event_groups.o(i.vEventGroupDelete) refers to heap_1.o(i.vPortFree) for vPortFree
    event_groups.o(i.vEventGroupDelete) refers to tasks.o(i.xTaskResumeAll) for xTaskResumeAll
    event_groups.o(i.vEventGroupSetBitsCallback) refers to event_groups.o(i.xEventGroupSetBits) for xEventGroupSetBits
    event_groups.o(i.xEventGroupClearBits) refers to port_cmsis.o(i.vPortEnterCritical) for vPortEnterCritical
    event_groups.o(i.xEventGroupClearBits) refers to port_cmsis.o(i.vPortExitCritical) for vPortExitCritical
    event_groups.o(i.xEventGroupCreate) refers to heap_1.o(i.pvPortMalloc) for pvPortMalloc
    event_groups.o(i.xEventGroupCreate) refers to list.o(i.vListInitialise) for vListInitialise
    event_groups.o(i.xEventGroupGetBitsFromISR) refers to event_groups.o(i.ulPortDisableISR) for ulPortDisableISR
    event_groups.o(i.xEventGroupSetBits) refers to tasks.o(i.vTaskSuspendAll) for vTaskSuspendAll
    event_groups.o(i.xEventGroupSetBits) refers to tasks.o(i.xTaskRemoveFromUnorderedEventList) for xTaskRemoveFromUnorderedEventList
    event_groups.o(i.xEventGroupSetBits) refers to tasks.o(i.xTaskResumeAll) for xTaskResumeAll
    event_groups.o(i.xEventGroupSync) refers to tasks.o(i.vTaskSuspendAll) for vTaskSuspendAll
    event_groups.o(i.xEventGroupSync) refers to event_groups.o(i.xEventGroupSetBits) for xEventGroupSetBits
    event_groups.o(i.xEventGroupSync) refers to tasks.o(i.vTaskPlaceOnUnorderedEventList) for vTaskPlaceOnUnorderedEventList
    event_groups.o(i.xEventGroupSync) refers to tasks.o(i.xTaskResumeAll) for xTaskResumeAll
    event_groups.o(i.xEventGroupSync) refers to port_cmsis.o(i.vPortTaskYield) for vPortTaskYield
    event_groups.o(i.xEventGroupSync) refers to tasks.o(i.uxTaskResetEventItemValue) for uxTaskResetEventItemValue
    event_groups.o(i.xEventGroupSync) refers to port_cmsis.o(i.vPortEnterCritical) for vPortEnterCritical
    event_groups.o(i.xEventGroupSync) refers to port_cmsis.o(i.vPortExitCritical) for vPortExitCritical
    event_groups.o(i.xEventGroupWaitBits) refers to tasks.o(i.vTaskSuspendAll) for vTaskSuspendAll
    event_groups.o(i.xEventGroupWaitBits) refers to event_groups.o(i.prvTestWaitCondition) for prvTestWaitCondition
    event_groups.o(i.xEventGroupWaitBits) refers to tasks.o(i.vTaskPlaceOnUnorderedEventList) for vTaskPlaceOnUnorderedEventList
    event_groups.o(i.xEventGroupWaitBits) refers to tasks.o(i.xTaskResumeAll) for xTaskResumeAll
    event_groups.o(i.xEventGroupWaitBits) refers to port_cmsis.o(i.vPortTaskYield) for vPortTaskYield
    event_groups.o(i.xEventGroupWaitBits) refers to tasks.o(i.uxTaskResetEventItemValue) for uxTaskResetEventItemValue
    event_groups.o(i.xEventGroupWaitBits) refers to port_cmsis.o(i.vPortEnterCritical) for vPortEnterCritical
    event_groups.o(i.xEventGroupWaitBits) refers to port_cmsis.o(i.vPortExitCritical) for vPortExitCritical
    queue.o(i.prvCopyDataFromQueue) refers to memmovea.o(.text) for __aeabi_memcpy
    queue.o(i.prvCopyDataToQueue) refers to memmovea.o(.text) for __aeabi_memcpy
    queue.o(i.prvCopyDataToQueue) refers to tasks.o(i.xTaskPriorityDisinherit) for xTaskPriorityDisinherit
    queue.o(i.prvUnlockQueue) refers to port_cmsis.o(i.vPortEnterCritical) for vPortEnterCritical
    queue.o(i.prvUnlockQueue) refers to tasks.o(i.xTaskRemoveFromEventList) for xTaskRemoveFromEventList
    queue.o(i.prvUnlockQueue) refers to tasks.o(i.vTaskMissedYield) for vTaskMissedYield
    queue.o(i.prvUnlockQueue) refers to port_cmsis.o(i.vPortExitCritical) for vPortExitCritical
    queue.o(i.ulPortDisableISR) refers to softdevice_handler.o(i.softdevice_handler_isEnabled) for softdevice_handler_isEnabled
    queue.o(i.ulPortDisableISR) refers to app_error.o(i.app_error_handler_bare) for app_error_handler_bare
    queue.o(i.uxQueueMessagesWaiting) refers to port_cmsis.o(i.vPortEnterCritical) for vPortEnterCritical
    queue.o(i.uxQueueMessagesWaiting) refers to port_cmsis.o(i.vPortExitCritical) for vPortExitCritical
    queue.o(i.uxQueueSpacesAvailable) refers to port_cmsis.o(i.vPortEnterCritical) for vPortEnterCritical
    queue.o(i.uxQueueSpacesAvailable) refers to port_cmsis.o(i.vPortExitCritical) for vPortExitCritical
    queue.o(i.vQueueAddToRegistry) refers to queue.o(.bss) for .bss
    queue.o(i.vQueueDelete) refers to queue.o(i.vQueueUnregisterQueue) for vQueueUnregisterQueue
    queue.o(i.vQueueDelete) refers to heap_1.o(i.vPortFree) for vPortFree
    queue.o(i.vQueueUnregisterQueue) refers to queue.o(.bss) for .bss
    queue.o(i.vQueueWaitForMessageRestricted) refers to port_cmsis.o(i.vPortEnterCritical) for vPortEnterCritical
    queue.o(i.vQueueWaitForMessageRestricted) refers to port_cmsis.o(i.vPortExitCritical) for vPortExitCritical
    queue.o(i.vQueueWaitForMessageRestricted) refers to tasks.o(i.vTaskPlaceOnEventListRestricted) for vTaskPlaceOnEventListRestricted
    queue.o(i.vQueueWaitForMessageRestricted) refers to queue.o(i.prvUnlockQueue) for prvUnlockQueue
    queue.o(i.xQueueCreateCountingSemaphore) refers to queue.o(i.xQueueGenericCreate) for xQueueGenericCreate
    queue.o(i.xQueueCreateMutex) refers to heap_1.o(i.pvPortMalloc) for pvPortMalloc
    queue.o(i.xQueueCreateMutex) refers to list.o(i.vListInitialise) for vListInitialise
    queue.o(i.xQueueCreateMutex) refers to queue.o(i.xQueueGenericSend) for xQueueGenericSend
    queue.o(i.xQueueGenericCreate) refers to heap_1.o(i.pvPortMalloc) for pvPortMalloc
    queue.o(i.xQueueGenericCreate) refers to queue.o(i.xQueueGenericReset) for xQueueGenericReset
    queue.o(i.xQueueGenericReceive) refers to port_cmsis.o(i.vPortEnterCritical) for vPortEnterCritical
    queue.o(i.xQueueGenericReceive) refers to queue.o(i.prvCopyDataFromQueue) for prvCopyDataFromQueue
    queue.o(i.xQueueGenericReceive) refers to tasks.o(i.xTaskRemoveFromEventList) for xTaskRemoveFromEventList
    queue.o(i.xQueueGenericReceive) refers to port_cmsis.o(i.vPortTaskYield) for vPortTaskYield
    queue.o(i.xQueueGenericReceive) refers to port_cmsis.o(i.vPortExitCritical) for vPortExitCritical
    queue.o(i.xQueueGenericReceive) refers to tasks.o(i.pvTaskIncrementMutexHeldCount) for pvTaskIncrementMutexHeldCount
    queue.o(i.xQueueGenericReceive) refers to tasks.o(i.vTaskSetTimeOutState) for vTaskSetTimeOutState
    queue.o(i.xQueueGenericReceive) refers to tasks.o(i.vTaskSuspendAll) for vTaskSuspendAll
    queue.o(i.xQueueGenericReceive) refers to tasks.o(i.xTaskCheckForTimeOut) for xTaskCheckForTimeOut
    queue.o(i.xQueueGenericReceive) refers to queue.o(i.prvUnlockQueue) for prvUnlockQueue
    queue.o(i.xQueueGenericReceive) refers to tasks.o(i.xTaskResumeAll) for xTaskResumeAll
    queue.o(i.xQueueGenericReceive) refers to tasks.o(i.vTaskPriorityInherit) for vTaskPriorityInherit
    queue.o(i.xQueueGenericReceive) refers to tasks.o(i.vTaskPlaceOnEventList) for vTaskPlaceOnEventList
    queue.o(i.xQueueGenericReset) refers to port_cmsis.o(i.vPortEnterCritical) for vPortEnterCritical
    queue.o(i.xQueueGenericReset) refers to list.o(i.vListInitialise) for vListInitialise
    queue.o(i.xQueueGenericReset) refers to port_cmsis.o(i.vPortExitCritical) for vPortExitCritical
    queue.o(i.xQueueGenericReset) refers to tasks.o(i.xTaskRemoveFromEventList) for xTaskRemoveFromEventList
    queue.o(i.xQueueGenericReset) refers to port_cmsis.o(i.vPortTaskYield) for vPortTaskYield
    queue.o(i.xQueueGenericSend) refers to port_cmsis.o(i.vPortEnterCritical) for vPortEnterCritical
    queue.o(i.xQueueGenericSend) refers to queue.o(i.prvCopyDataToQueue) for prvCopyDataToQueue
    queue.o(i.xQueueGenericSend) refers to tasks.o(i.xTaskRemoveFromEventList) for xTaskRemoveFromEventList
    queue.o(i.xQueueGenericSend) refers to port_cmsis.o(i.vPortTaskYield) for vPortTaskYield
    queue.o(i.xQueueGenericSend) refers to port_cmsis.o(i.vPortExitCritical) for vPortExitCritical
    queue.o(i.xQueueGenericSend) refers to tasks.o(i.vTaskSetTimeOutState) for vTaskSetTimeOutState
    queue.o(i.xQueueGenericSend) refers to tasks.o(i.vTaskSuspendAll) for vTaskSuspendAll
    queue.o(i.xQueueGenericSend) refers to tasks.o(i.xTaskCheckForTimeOut) for xTaskCheckForTimeOut
    queue.o(i.xQueueGenericSend) refers to queue.o(i.prvUnlockQueue) for prvUnlockQueue
    queue.o(i.xQueueGenericSend) refers to tasks.o(i.xTaskResumeAll) for xTaskResumeAll
    queue.o(i.xQueueGenericSend) refers to tasks.o(i.vTaskPlaceOnEventList) for vTaskPlaceOnEventList
    queue.o(i.xQueueGenericSendFromISR) refers to queue.o(i.ulPortDisableISR) for ulPortDisableISR
    queue.o(i.xQueueGenericSendFromISR) refers to queue.o(i.vPortRestoreISR) for vPortRestoreISR
    queue.o(i.xQueueGenericSendFromISR) refers to queue.o(i.prvCopyDataToQueue) for prvCopyDataToQueue
    queue.o(i.xQueueGenericSendFromISR) refers to tasks.o(i.xTaskRemoveFromEventList) for xTaskRemoveFromEventList
    queue.o(i.xQueueGiveFromISR) refers to queue.o(i.ulPortDisableISR) for ulPortDisableISR
    queue.o(i.xQueueGiveFromISR) refers to tasks.o(i.xTaskRemoveFromEventList) for xTaskRemoveFromEventList
    queue.o(i.xQueueGiveFromISR) refers to queue.o(i.vPortRestoreISR) for vPortRestoreISR
    queue.o(i.xQueueGiveMutexRecursive) refers to tasks.o(i.xTaskGetCurrentTaskHandle) for xTaskGetCurrentTaskHandle
    queue.o(i.xQueueGiveMutexRecursive) refers to queue.o(i.xQueueGenericSend) for xQueueGenericSend
    queue.o(i.xQueuePeekFromISR) refers to queue.o(i.ulPortDisableISR) for ulPortDisableISR
    queue.o(i.xQueuePeekFromISR) refers to queue.o(i.prvCopyDataFromQueue) for prvCopyDataFromQueue
    queue.o(i.xQueuePeekFromISR) refers to queue.o(i.vPortRestoreISR) for vPortRestoreISR
    queue.o(i.xQueueReceiveFromISR) refers to queue.o(i.ulPortDisableISR) for ulPortDisableISR
    queue.o(i.xQueueReceiveFromISR) refers to queue.o(i.prvCopyDataFromQueue) for prvCopyDataFromQueue
    queue.o(i.xQueueReceiveFromISR) refers to tasks.o(i.xTaskRemoveFromEventList) for xTaskRemoveFromEventList
    queue.o(i.xQueueReceiveFromISR) refers to queue.o(i.vPortRestoreISR) for vPortRestoreISR
    queue.o(i.xQueueTakeMutexRecursive) refers to tasks.o(i.xTaskGetCurrentTaskHandle) for xTaskGetCurrentTaskHandle
    queue.o(i.xQueueTakeMutexRecursive) refers to queue.o(i.xQueueGenericReceive) for xQueueGenericReceive
    timers.o(i.prvCheckForValidListAndQueue) refers to port_cmsis.o(i.vPortEnterCritical) for vPortEnterCritical
    timers.o(i.prvCheckForValidListAndQueue) refers to list.o(i.vListInitialise) for vListInitialise
    timers.o(i.prvCheckForValidListAndQueue) refers to queue.o(i.xQueueGenericCreate) for xQueueGenericCreate
    timers.o(i.prvCheckForValidListAndQueue) refers to queue.o(i.vQueueAddToRegistry) for vQueueAddToRegistry
    timers.o(i.prvCheckForValidListAndQueue) refers to port_cmsis.o(i.vPortExitCritical) for vPortExitCritical
    timers.o(i.prvCheckForValidListAndQueue) refers to timers.o(.data) for .data
    timers.o(i.prvCheckForValidListAndQueue) refers to timers.o(.bss) for .bss
    timers.o(i.prvInsertTimerInActiveList) refers to list.o(i.vListInsert) for vListInsert
    timers.o(i.prvInsertTimerInActiveList) refers to timers.o(.data) for .data
    timers.o(i.prvProcessReceivedCommands) refers to list.o(i.uxListRemove) for uxListRemove
    timers.o(i.prvProcessReceivedCommands) refers to timers.o(i.prvSampleTimeNow) for prvSampleTimeNow
    timers.o(i.prvProcessReceivedCommands) refers to ble_srv_common.o(i.__ARM_common_switch8) for __ARM_common_switch8
    timers.o(i.prvProcessReceivedCommands) refers to timers.o(i.prvInsertTimerInActiveList) for prvInsertTimerInActiveList
    timers.o(i.prvProcessReceivedCommands) refers to timers.o(i.xTimerGenericCommand) for xTimerGenericCommand
    timers.o(i.prvProcessReceivedCommands) refers to heap_1.o(i.vPortFree) for vPortFree
    timers.o(i.prvProcessReceivedCommands) refers to queue.o(i.xQueueGenericReceive) for xQueueGenericReceive
    timers.o(i.prvProcessReceivedCommands) refers to timers.o(.data) for .data
    timers.o(i.prvProcessTimerOrBlockTask) refers to tasks.o(i.vTaskSuspendAll) for vTaskSuspendAll
    timers.o(i.prvProcessTimerOrBlockTask) refers to timers.o(i.prvSampleTimeNow) for prvSampleTimeNow
    timers.o(i.prvProcessTimerOrBlockTask) refers to tasks.o(i.xTaskResumeAll) for xTaskResumeAll
    timers.o(i.prvProcessTimerOrBlockTask) refers to list.o(i.uxListRemove) for uxListRemove
    timers.o(i.prvProcessTimerOrBlockTask) refers to timers.o(i.prvInsertTimerInActiveList) for prvInsertTimerInActiveList
    timers.o(i.prvProcessTimerOrBlockTask) refers to timers.o(i.xTimerGenericCommand) for xTimerGenericCommand
    timers.o(i.prvProcessTimerOrBlockTask) refers to queue.o(i.vQueueWaitForMessageRestricted) for vQueueWaitForMessageRestricted
    timers.o(i.prvProcessTimerOrBlockTask) refers to port_cmsis.o(i.vPortTaskYield) for vPortTaskYield
    timers.o(i.prvProcessTimerOrBlockTask) refers to timers.o(.data) for .data
    timers.o(i.prvSampleTimeNow) refers to tasks.o(i.xTaskGetTickCount) for xTaskGetTickCount
    timers.o(i.prvSampleTimeNow) refers to timers.o(i.prvSwitchTimerLists) for prvSwitchTimerLists
    timers.o(i.prvSampleTimeNow) refers to timers.o(.data) for .data
    timers.o(i.prvSwitchTimerLists) refers to list.o(i.uxListRemove) for uxListRemove
    timers.o(i.prvSwitchTimerLists) refers to list.o(i.vListInsert) for vListInsert
    timers.o(i.prvSwitchTimerLists) refers to timers.o(i.xTimerGenericCommand) for xTimerGenericCommand
    timers.o(i.prvSwitchTimerLists) refers to timers.o(.data) for .data
    timers.o(i.prvTimerTask) refers to timers.o(i.prvProcessTimerOrBlockTask) for prvProcessTimerOrBlockTask
    timers.o(i.prvTimerTask) refers to timers.o(i.prvProcessReceivedCommands) for prvProcessReceivedCommands
    timers.o(i.prvTimerTask) refers to timers.o(.data) for .data
    timers.o(i.pvTimerGetTimerID) refers to port_cmsis.o(i.vPortEnterCritical) for vPortEnterCritical
    timers.o(i.pvTimerGetTimerID) refers to port_cmsis.o(i.vPortExitCritical) for vPortExitCritical
    timers.o(i.vTimerSetTimerID) refers to port_cmsis.o(i.vPortEnterCritical) for vPortEnterCritical
    timers.o(i.vTimerSetTimerID) refers to port_cmsis.o(i.vPortExitCritical) for vPortExitCritical
    timers.o(i.xTimerCreate) refers to heap_1.o(i.pvPortMalloc) for pvPortMalloc
    timers.o(i.xTimerCreate) refers to timers.o(i.prvCheckForValidListAndQueue) for prvCheckForValidListAndQueue
    timers.o(i.xTimerCreate) refers to list.o(i.vListInitialiseItem) for vListInitialiseItem
    timers.o(i.xTimerCreateTimerTask) refers to timers.o(i.prvCheckForValidListAndQueue) for prvCheckForValidListAndQueue
    timers.o(i.xTimerCreateTimerTask) refers to tasks.o(i.xTaskGenericCreate) for xTaskGenericCreate
    timers.o(i.xTimerCreateTimerTask) refers to timers.o(.data) for .data
    timers.o(i.xTimerCreateTimerTask) refers to timers.o(i.prvTimerTask) for prvTimerTask
    timers.o(i.xTimerGenericCommand) refers to tasks.o(i.xTaskGetSchedulerState) for xTaskGetSchedulerState
    timers.o(i.xTimerGenericCommand) refers to queue.o(i.xQueueGenericSend) for xQueueGenericSend
    timers.o(i.xTimerGenericCommand) refers to queue.o(i.xQueueGenericSendFromISR) for xQueueGenericSendFromISR
    timers.o(i.xTimerGenericCommand) refers to timers.o(.data) for .data
    timers.o(i.xTimerGetTimerDaemonTaskHandle) refers to timers.o(.data) for .data
    timers.o(i.xTimerIsTimerActive) refers to port_cmsis.o(i.vPortEnterCritical) for vPortEnterCritical
    timers.o(i.xTimerIsTimerActive) refers to port_cmsis.o(i.vPortExitCritical) for vPortExitCritical
    timers.o(i.xTimerPendFunctionCall) refers to queue.o(i.xQueueGenericSend) for xQueueGenericSend
    timers.o(i.xTimerPendFunctionCall) refers to timers.o(.data) for .data
    timers.o(i.xTimerPendFunctionCallFromISR) refers to queue.o(i.xQueueGenericSendFromISR) for xQueueGenericSendFromISR
    timers.o(i.xTimerPendFunctionCallFromISR) refers to timers.o(.data) for .data
    heap_1.o(i.pvPortMalloc) refers to tasks.o(i.vTaskSuspendAll) for vTaskSuspendAll
    heap_1.o(i.pvPortMalloc) refers to tasks.o(i.xTaskResumeAll) for xTaskResumeAll
    heap_1.o(i.pvPortMalloc) refers to heap_1.o(.data) for .data
    heap_1.o(i.pvPortMalloc) refers to heap_1.o(.bss) for .bss
    heap_1.o(i.vPortInitialiseBlocks) refers to heap_1.o(.data) for .data
    heap_1.o(i.xPortGetFreeHeapSize) refers to heap_1.o(.data) for .data
    port_cmsis.o(i.prvTaskExitError) refers to port_cmsis.o(i.vPortDisableISR) for vPortDisableISR
    port_cmsis.o(i.pxPortInitialiseStack) refers to port_cmsis.o(.constdata) for .constdata
    port_cmsis.o(i.pxPortInitialiseStack) refers to port_cmsis.o(i.prvTaskExitError) for prvTaskExitError
    port_cmsis.o(i.vPortDisableISR) refers to softdevice_handler.o(i.softdevice_handler_isEnabled) for softdevice_handler_isEnabled
    port_cmsis.o(i.vPortDisableISR) refers to port_cmsis.o(i.current_int_priority_get) for current_int_priority_get
    port_cmsis.o(i.vPortDisableISR) refers to app_error.o(i.app_error_handler_bare) for app_error_handler_bare
    port_cmsis.o(i.vPortEnterCritical) refers to port_cmsis.o(i.vPortDisableISR) for vPortDisableISR
    port_cmsis.o(i.vPortEnterCritical) refers to port_cmsis.o(.data) for .data
    port_cmsis.o(i.vPortExitCritical) refers to softdevice_handler.o(i.softdevice_handler_isEnabled) for softdevice_handler_isEnabled
    port_cmsis.o(i.vPortExitCritical) refers to port_cmsis.o(i.current_int_priority_get) for current_int_priority_get
    port_cmsis.o(i.vPortExitCritical) refers to port_cmsis.o(.data) for .data
    port_cmsis.o(i.vPortSafeTaskSwitchContext) refers to softdevice_handler.o(i.softdevice_handler_isEnabled) for softdevice_handler_isEnabled
    port_cmsis.o(i.vPortSafeTaskSwitchContext) refers to port_cmsis.o(i.current_int_priority_get) for current_int_priority_get
    port_cmsis.o(i.vPortSafeTaskSwitchContext) refers to app_error.o(i.app_error_handler_bare) for app_error_handler_bare
    port_cmsis.o(i.vPortSafeTaskSwitchContext) refers to tasks.o(i.vTaskSwitchContext) for vTaskSwitchContext
    port_cmsis.o(i.vPortTaskYield) refers to port_cmsis.o(.data) for .data
    port_cmsis.o(i.xPortStartScheduler) refers to port_cmsis_systick.o(i.vPortSetupTimerInterrupt) for vPortSetupTimerInterrupt
    port_cmsis.o(i.xPortStartScheduler) refers to port.o(.emb_text) for vPortStartFirstTask
    port_cmsis.o(i.xPortStartScheduler) refers to port_cmsis.o(i.vPortDisableISR) for vPortDisableISR
    port_cmsis.o(i.xPortStartScheduler) refers to port_cmsis.o(.data) for .data
    port_cmsis_systick.o(i.RTC1_IRQHandler) refers to softdevice_handler.o(i.softdevice_handler_isEnabled) for softdevice_handler_isEnabled
    port_cmsis_systick.o(i.RTC1_IRQHandler) refers to port_cmsis_systick.o(i.current_int_priority_get) for current_int_priority_get
    port_cmsis_systick.o(i.RTC1_IRQHandler) refers to app_error.o(i.app_error_handler_bare) for app_error_handler_bare
    port_cmsis_systick.o(i.RTC1_IRQHandler) refers to tasks.o(i.xTaskGetTickCountFromISR) for xTaskGetTickCountFromISR
    port_cmsis_systick.o(i.RTC1_IRQHandler) refers to tasks.o(i.vTaskStepTick) for vTaskStepTick
    port_cmsis_systick.o(i.RTC1_IRQHandler) refers to tasks.o(i.xTaskIncrementTick) for xTaskIncrementTick
    port_cmsis_systick.o(i.vPortEnableISR) refers to softdevice_handler.o(i.softdevice_handler_isEnabled) for softdevice_handler_isEnabled
    port_cmsis_systick.o(i.vPortEnableISR) refers to port_cmsis_systick.o(i.current_int_priority_get) for current_int_priority_get
    port_cmsis_systick.o(i.vPortSetupTimerInterrupt) refers to nrf_drv_clock.o(i.nrf_drv_clock_lfclk_request) for nrf_drv_clock_lfclk_request
    port_cmsis_systick.o(i.vPortSuppressTicksAndSleep) refers to softdevice_handler.o(i.softdevice_handler_isEnabled) for softdevice_handler_isEnabled
    port_cmsis_systick.o(i.vPortSuppressTicksAndSleep) refers to port_cmsis_systick.o(i.current_int_priority_get) for current_int_priority_get
    port_cmsis_systick.o(i.vPortSuppressTicksAndSleep) refers to app_error.o(i.app_error_handler_bare) for app_error_handler_bare
    port_cmsis_systick.o(i.vPortSuppressTicksAndSleep) refers to tasks.o(i.eTaskConfirmSleepModeStatus) for eTaskConfirmSleepModeStatus
    port_cmsis_systick.o(i.vPortSuppressTicksAndSleep) refers to port_cmsis_systick.o(i.vPortEnableISR) for vPortEnableISR
    port.o(.emb_text) refers to arm_startup_nrf51.o(RESET) for __Vectors
    port.o(.emb_text) refers to port_cmsis.o(i.vPortSafeTaskSwitchContext) for vPortSafeTaskSwitchContext
    port.o(.emb_text) refers to tasks.o(.data) for pxCurrentTCB
    tasks.o(i.eTaskConfirmSleepModeStatus) refers to tasks.o(.bss) for .bss
    tasks.o(i.eTaskConfirmSleepModeStatus) refers to tasks.o(.data) for .data
    tasks.o(i.eTaskGetState) refers to port_cmsis.o(i.vPortEnterCritical) for vPortEnterCritical
    tasks.o(i.eTaskGetState) refers to port_cmsis.o(i.vPortExitCritical) for vPortExitCritical
    tasks.o(i.eTaskGetState) refers to tasks.o(.data) for .data
    tasks.o(i.eTaskGetState) refers to tasks.o(.bss) for .bss
    tasks.o(i.pcTaskGetTaskName) refers to tasks.o(.data) for .data
    tasks.o(i.prvAddCurrentTaskToDelayedList) refers to list.o(i.vListInsert) for vListInsert
    tasks.o(i.prvAddCurrentTaskToDelayedList) refers to tasks.o(.data) for .data
    tasks.o(i.prvCheckTasksWaitingTermination) refers to tasks.o(i.vTaskSuspendAll) for vTaskSuspendAll
    tasks.o(i.prvCheckTasksWaitingTermination) refers to tasks.o(i.xTaskResumeAll) for xTaskResumeAll
    tasks.o(i.prvCheckTasksWaitingTermination) refers to port_cmsis.o(i.vPortEnterCritical) for vPortEnterCritical
    tasks.o(i.prvCheckTasksWaitingTermination) refers to list.o(i.uxListRemove) for uxListRemove
    tasks.o(i.prvCheckTasksWaitingTermination) refers to port_cmsis.o(i.vPortExitCritical) for vPortExitCritical
    tasks.o(i.prvCheckTasksWaitingTermination) refers to heap_1.o(i.vPortFree) for vPortFree
    tasks.o(i.prvCheckTasksWaitingTermination) refers to tasks.o(.bss) for .bss
    tasks.o(i.prvCheckTasksWaitingTermination) refers to tasks.o(.data) for .data
    tasks.o(i.prvGetExpectedIdleTime) refers to tasks.o(.data) for .data
    tasks.o(i.prvGetExpectedIdleTime) refers to tasks.o(.bss) for .bss
    tasks.o(i.prvIdleTask) refers to tasks.o(i.prvCheckTasksWaitingTermination) for prvCheckTasksWaitingTermination
    tasks.o(i.prvIdleTask) refers to port_cmsis.o(i.vPortTaskYield) for vPortTaskYield
    tasks.o(i.prvIdleTask) refers to tasks.o(i.prvGetExpectedIdleTime) for prvGetExpectedIdleTime
    tasks.o(i.prvIdleTask) refers to tasks.o(i.vTaskSuspendAll) for vTaskSuspendAll
    tasks.o(i.prvIdleTask) refers to port_cmsis_systick.o(i.vPortSuppressTicksAndSleep) for vPortSuppressTicksAndSleep
    tasks.o(i.prvIdleTask) refers to tasks.o(i.xTaskResumeAll) for xTaskResumeAll
    tasks.o(i.prvIdleTask) refers to tasks.o(.bss) for .bss
    tasks.o(i.prvResetNextTaskUnblockTime) refers to tasks.o(.data) for .data
    tasks.o(i.prvTaskIsTaskSuspended) refers to tasks.o(.bss) for .bss
    tasks.o(i.pvTaskIncrementMutexHeldCount) refers to tasks.o(.data) for .data
    tasks.o(i.ulPortDisableISR) refers to softdevice_handler.o(i.softdevice_handler_isEnabled) for softdevice_handler_isEnabled
    tasks.o(i.ulPortDisableISR) refers to tasks.o(i.current_int_priority_get) for current_int_priority_get
    tasks.o(i.ulPortDisableISR) refers to app_error.o(i.app_error_handler_bare) for app_error_handler_bare
    tasks.o(i.ulTaskNotifyTake) refers to port_cmsis.o(i.vPortEnterCritical) for vPortEnterCritical
    tasks.o(i.ulTaskNotifyTake) refers to list.o(i.uxListRemove) for uxListRemove
    tasks.o(i.ulTaskNotifyTake) refers to tasks.o(i.prvAddCurrentTaskToDelayedList) for prvAddCurrentTaskToDelayedList
    tasks.o(i.ulTaskNotifyTake) refers to port_cmsis.o(i.vPortTaskYield) for vPortTaskYield
    tasks.o(i.ulTaskNotifyTake) refers to port_cmsis.o(i.vPortExitCritical) for vPortExitCritical
    tasks.o(i.ulTaskNotifyTake) refers to list.o(i.vListInsertEnd) for vListInsertEnd
    tasks.o(i.ulTaskNotifyTake) refers to tasks.o(.data) for .data
    tasks.o(i.ulTaskNotifyTake) refers to tasks.o(.bss) for .bss
    tasks.o(i.uxTaskGetNumberOfTasks) refers to tasks.o(.data) for .data
    tasks.o(i.uxTaskGetStackHighWaterMark) refers to tasks.o(.data) for .data
    tasks.o(i.uxTaskPriorityGet) refers to port_cmsis.o(i.vPortEnterCritical) for vPortEnterCritical
    tasks.o(i.uxTaskPriorityGet) refers to port_cmsis.o(i.vPortExitCritical) for vPortExitCritical
    tasks.o(i.uxTaskPriorityGet) refers to tasks.o(.data) for .data
    tasks.o(i.uxTaskPriorityGetFromISR) refers to tasks.o(i.ulPortDisableISR) for ulPortDisableISR
    tasks.o(i.uxTaskPriorityGetFromISR) refers to tasks.o(i.vPortRestoreISR) for vPortRestoreISR
    tasks.o(i.uxTaskPriorityGetFromISR) refers to tasks.o(.data) for .data
    tasks.o(i.uxTaskResetEventItemValue) refers to tasks.o(.data) for .data
    tasks.o(i.vPortDisableISR) refers to softdevice_handler.o(i.softdevice_handler_isEnabled) for softdevice_handler_isEnabled
    tasks.o(i.vPortDisableISR) refers to tasks.o(i.current_int_priority_get) for current_int_priority_get
    tasks.o(i.vPortDisableISR) refers to app_error.o(i.app_error_handler_bare) for app_error_handler_bare
    tasks.o(i.vTaskDelay) refers to tasks.o(i.vTaskSuspendAll) for vTaskSuspendAll
    tasks.o(i.vTaskDelay) refers to list.o(i.uxListRemove) for uxListRemove
    tasks.o(i.vTaskDelay) refers to tasks.o(i.prvAddCurrentTaskToDelayedList) for prvAddCurrentTaskToDelayedList
    tasks.o(i.vTaskDelay) refers to tasks.o(i.xTaskResumeAll) for xTaskResumeAll
    tasks.o(i.vTaskDelay) refers to port_cmsis.o(i.vPortTaskYield) for vPortTaskYield
    tasks.o(i.vTaskDelay) refers to tasks.o(.data) for .data
    tasks.o(i.vTaskDelayUntil) refers to tasks.o(i.vTaskSuspendAll) for vTaskSuspendAll
    tasks.o(i.vTaskDelayUntil) refers to list.o(i.uxListRemove) for uxListRemove
    tasks.o(i.vTaskDelayUntil) refers to tasks.o(i.prvAddCurrentTaskToDelayedList) for prvAddCurrentTaskToDelayedList
    tasks.o(i.vTaskDelayUntil) refers to tasks.o(i.xTaskResumeAll) for xTaskResumeAll
    tasks.o(i.vTaskDelayUntil) refers to port_cmsis.o(i.vPortTaskYield) for vPortTaskYield
    tasks.o(i.vTaskDelayUntil) refers to tasks.o(.data) for .data
    tasks.o(i.vTaskDelete) refers to port_cmsis.o(i.vPortEnterCritical) for vPortEnterCritical
    tasks.o(i.vTaskDelete) refers to list.o(i.uxListRemove) for uxListRemove
    tasks.o(i.vTaskDelete) refers to list.o(i.vListInsertEnd) for vListInsertEnd
    tasks.o(i.vTaskDelete) refers to port_cmsis.o(i.vPortExitCritical) for vPortExitCritical
    tasks.o(i.vTaskDelete) refers to port_cmsis.o(i.vPortTaskYield) for vPortTaskYield
    tasks.o(i.vTaskDelete) refers to tasks.o(i.prvResetNextTaskUnblockTime) for prvResetNextTaskUnblockTime
    tasks.o(i.vTaskDelete) refers to tasks.o(.data) for .data
    tasks.o(i.vTaskDelete) refers to tasks.o(.bss) for .bss
    tasks.o(i.vTaskEndScheduler) refers to tasks.o(i.vPortDisableISR) for vPortDisableISR
    tasks.o(i.vTaskEndScheduler) refers to port_cmsis.o(i.vPortEndScheduler) for vPortEndScheduler
    tasks.o(i.vTaskEndScheduler) refers to tasks.o(.data) for .data
    tasks.o(i.vTaskMissedYield) refers to tasks.o(.data) for .data
    tasks.o(i.vTaskNotifyGiveFromISR) refers to tasks.o(i.ulPortDisableISR) for ulPortDisableISR
    tasks.o(i.vTaskNotifyGiveFromISR) refers to list.o(i.vListInsertEnd) for vListInsertEnd
    tasks.o(i.vTaskNotifyGiveFromISR) refers to tasks.o(i.vPortRestoreISR) for vPortRestoreISR
    tasks.o(i.vTaskNotifyGiveFromISR) refers to list.o(i.uxListRemove) for uxListRemove
    tasks.o(i.vTaskNotifyGiveFromISR) refers to tasks.o(.data) for .data
    tasks.o(i.vTaskNotifyGiveFromISR) refers to tasks.o(.bss) for .bss
    tasks.o(i.vTaskPlaceOnEventList) refers to list.o(i.vListInsert) for vListInsert
    tasks.o(i.vTaskPlaceOnEventList) refers to list.o(i.uxListRemove) for uxListRemove
    tasks.o(i.vTaskPlaceOnEventList) refers to tasks.o(i.prvAddCurrentTaskToDelayedList) for prvAddCurrentTaskToDelayedList
    tasks.o(i.vTaskPlaceOnEventList) refers to list.o(i.vListInsertEnd) for vListInsertEnd
    tasks.o(i.vTaskPlaceOnEventList) refers to tasks.o(.data) for .data
    tasks.o(i.vTaskPlaceOnEventList) refers to tasks.o(.bss) for .bss
    tasks.o(i.vTaskPlaceOnEventListRestricted) refers to list.o(i.vListInsertEnd) for vListInsertEnd
    tasks.o(i.vTaskPlaceOnEventListRestricted) refers to list.o(i.uxListRemove) for uxListRemove
    tasks.o(i.vTaskPlaceOnEventListRestricted) refers to tasks.o(i.prvAddCurrentTaskToDelayedList) for prvAddCurrentTaskToDelayedList
    tasks.o(i.vTaskPlaceOnEventListRestricted) refers to tasks.o(.data) for .data
    tasks.o(i.vTaskPlaceOnUnorderedEventList) refers to list.o(i.vListInsertEnd) for vListInsertEnd
    tasks.o(i.vTaskPlaceOnUnorderedEventList) refers to list.o(i.uxListRemove) for uxListRemove
    tasks.o(i.vTaskPlaceOnUnorderedEventList) refers to tasks.o(i.prvAddCurrentTaskToDelayedList) for prvAddCurrentTaskToDelayedList
    tasks.o(i.vTaskPlaceOnUnorderedEventList) refers to tasks.o(.data) for .data
    tasks.o(i.vTaskPlaceOnUnorderedEventList) refers to tasks.o(.bss) for .bss
    tasks.o(i.vTaskPriorityInherit) refers to list.o(i.uxListRemove) for uxListRemove
    tasks.o(i.vTaskPriorityInherit) refers to list.o(i.vListInsertEnd) for vListInsertEnd
    tasks.o(i.vTaskPriorityInherit) refers to tasks.o(.data) for .data
    tasks.o(i.vTaskPriorityInherit) refers to tasks.o(.bss) for .bss
    tasks.o(i.vTaskPrioritySet) refers to port_cmsis.o(i.vPortEnterCritical) for vPortEnterCritical
    tasks.o(i.vTaskPrioritySet) refers to list.o(i.uxListRemove) for uxListRemove
    tasks.o(i.vTaskPrioritySet) refers to list.o(i.vListInsertEnd) for vListInsertEnd
    tasks.o(i.vTaskPrioritySet) refers to port_cmsis.o(i.vPortTaskYield) for vPortTaskYield
    tasks.o(i.vTaskPrioritySet) refers to port_cmsis.o(i.vPortExitCritical) for vPortExitCritical
    tasks.o(i.vTaskPrioritySet) refers to tasks.o(.data) for .data
    tasks.o(i.vTaskPrioritySet) refers to tasks.o(.bss) for .bss
    tasks.o(i.vTaskResume) refers to port_cmsis.o(i.vPortEnterCritical) for vPortEnterCritical
    tasks.o(i.vTaskResume) refers to tasks.o(i.prvTaskIsTaskSuspended) for prvTaskIsTaskSuspended
    tasks.o(i.vTaskResume) refers to list.o(i.uxListRemove) for uxListRemove
    tasks.o(i.vTaskResume) refers to list.o(i.vListInsertEnd) for vListInsertEnd
    tasks.o(i.vTaskResume) refers to port_cmsis.o(i.vPortTaskYield) for vPortTaskYield
    tasks.o(i.vTaskResume) refers to port_cmsis.o(i.vPortExitCritical) for vPortExitCritical
    tasks.o(i.vTaskResume) refers to tasks.o(.data) for .data
    tasks.o(i.vTaskResume) refers to tasks.o(.bss) for .bss
    tasks.o(i.vTaskSetTimeOutState) refers to tasks.o(.data) for .data
    tasks.o(i.vTaskStartScheduler) refers to tasks.o(i.xTaskGenericCreate) for xTaskGenericCreate
    tasks.o(i.vTaskStartScheduler) refers to timers.o(i.xTimerCreateTimerTask) for xTimerCreateTimerTask
    tasks.o(i.vTaskStartScheduler) refers to tasks.o(i.vPortDisableISR) for vPortDisableISR
    tasks.o(i.vTaskStartScheduler) refers to port_cmsis.o(i.xPortStartScheduler) for xPortStartScheduler
    tasks.o(i.vTaskStartScheduler) refers to tasks.o(.data) for .data
    tasks.o(i.vTaskStartScheduler) refers to tasks.o(i.prvIdleTask) for prvIdleTask
    tasks.o(i.vTaskStepTick) refers to tasks.o(.data) for .data
    tasks.o(i.vTaskSuspend) refers to port_cmsis.o(i.vPortEnterCritical) for vPortEnterCritical
    tasks.o(i.vTaskSuspend) refers to list.o(i.uxListRemove) for uxListRemove
    tasks.o(i.vTaskSuspend) refers to list.o(i.vListInsertEnd) for vListInsertEnd
    tasks.o(i.vTaskSuspend) refers to port_cmsis.o(i.vPortExitCritical) for vPortExitCritical
    tasks.o(i.vTaskSuspend) refers to port_cmsis.o(i.vPortTaskYield) for vPortTaskYield
    tasks.o(i.vTaskSuspend) refers to tasks.o(i.vTaskSwitchContext) for vTaskSwitchContext
    tasks.o(i.vTaskSuspend) refers to tasks.o(i.prvResetNextTaskUnblockTime) for prvResetNextTaskUnblockTime
    tasks.o(i.vTaskSuspend) refers to tasks.o(.data) for .data
    tasks.o(i.vTaskSuspend) refers to tasks.o(.bss) for .bss
    tasks.o(i.vTaskSuspendAll) refers to tasks.o(.data) for .data
    tasks.o(i.vTaskSwitchContext) refers to tasks.o(.data) for .data
    tasks.o(i.vTaskSwitchContext) refers to tasks.o(.bss) for .bss
    tasks.o(i.xTaskCheckForTimeOut) refers to port_cmsis.o(i.vPortEnterCritical) for vPortEnterCritical
    tasks.o(i.xTaskCheckForTimeOut) refers to tasks.o(i.vTaskSetTimeOutState) for vTaskSetTimeOutState
    tasks.o(i.xTaskCheckForTimeOut) refers to port_cmsis.o(i.vPortExitCritical) for vPortExitCritical
    tasks.o(i.xTaskCheckForTimeOut) refers to tasks.o(.data) for .data
    tasks.o(i.xTaskGenericCreate) refers to heap_1.o(i.pvPortMalloc) for pvPortMalloc
    tasks.o(i.xTaskGenericCreate) refers to memseta.o(.text) for __aeabi_memset
    tasks.o(i.xTaskGenericCreate) refers to heap_1.o(i.vPortFree) for vPortFree
    tasks.o(i.xTaskGenericCreate) refers to list.o(i.vListInitialiseItem) for vListInitialiseItem
    tasks.o(i.xTaskGenericCreate) refers to port_cmsis.o(i.pxPortInitialiseStack) for pxPortInitialiseStack
    tasks.o(i.xTaskGenericCreate) refers to port_cmsis.o(i.vPortEnterCritical) for vPortEnterCritical
    tasks.o(i.xTaskGenericCreate) refers to list.o(i.vListInitialise) for vListInitialise
    tasks.o(i.xTaskGenericCreate) refers to list.o(i.vListInsertEnd) for vListInsertEnd
    tasks.o(i.xTaskGenericCreate) refers to port_cmsis.o(i.vPortExitCritical) for vPortExitCritical
    tasks.o(i.xTaskGenericCreate) refers to port_cmsis.o(i.vPortTaskYield) for vPortTaskYield
    tasks.o(i.xTaskGenericCreate) refers to tasks.o(.data) for .data
    tasks.o(i.xTaskGenericCreate) refers to tasks.o(.bss) for .bss
    tasks.o(i.xTaskGenericNotify) refers to port_cmsis.o(i.vPortEnterCritical) for vPortEnterCritical
    tasks.o(i.xTaskGenericNotify) refers to ble_srv_common.o(i.__ARM_common_switch8) for __ARM_common_switch8
    tasks.o(i.xTaskGenericNotify) refers to list.o(i.uxListRemove) for uxListRemove
    tasks.o(i.xTaskGenericNotify) refers to list.o(i.vListInsertEnd) for vListInsertEnd
    tasks.o(i.xTaskGenericNotify) refers to port_cmsis.o(i.vPortTaskYield) for vPortTaskYield
    tasks.o(i.xTaskGenericNotify) refers to port_cmsis.o(i.vPortExitCritical) for vPortExitCritical
    tasks.o(i.xTaskGenericNotify) refers to tasks.o(.data) for .data
    tasks.o(i.xTaskGenericNotify) refers to tasks.o(.bss) for .bss
    tasks.o(i.xTaskGetCurrentTaskHandle) refers to tasks.o(.data) for .data
    tasks.o(i.xTaskGetIdleTaskHandle) refers to tasks.o(.data) for .data
    tasks.o(i.xTaskGetSchedulerState) refers to tasks.o(.data) for .data
    tasks.o(i.xTaskGetTickCount) refers to tasks.o(.data) for .data
    tasks.o(i.xTaskGetTickCountFromISR) refers to tasks.o(.data) for .data
    tasks.o(i.xTaskIncrementTick) refers to tasks.o(i.prvResetNextTaskUnblockTime) for prvResetNextTaskUnblockTime
    tasks.o(i.xTaskIncrementTick) refers to list.o(i.uxListRemove) for uxListRemove
    tasks.o(i.xTaskIncrementTick) refers to list.o(i.vListInsertEnd) for vListInsertEnd
    tasks.o(i.xTaskIncrementTick) refers to tasks.o(.data) for .data
    tasks.o(i.xTaskIncrementTick) refers to tasks.o(.bss) for .bss
    tasks.o(i.xTaskNotifyFromISR) refers to tasks.o(i.ulPortDisableISR) for ulPortDisableISR
    tasks.o(i.xTaskNotifyFromISR) refers to ble_srv_common.o(i.__ARM_common_switch8) for __ARM_common_switch8
    tasks.o(i.xTaskNotifyFromISR) refers to list.o(i.vListInsertEnd) for vListInsertEnd
    tasks.o(i.xTaskNotifyFromISR) refers to tasks.o(i.vPortRestoreISR) for vPortRestoreISR
    tasks.o(i.xTaskNotifyFromISR) refers to list.o(i.uxListRemove) for uxListRemove
    tasks.o(i.xTaskNotifyFromISR) refers to tasks.o(.data) for .data
    tasks.o(i.xTaskNotifyFromISR) refers to tasks.o(.bss) for .bss
    tasks.o(i.xTaskNotifyWait) refers to port_cmsis.o(i.vPortEnterCritical) for vPortEnterCritical
    tasks.o(i.xTaskNotifyWait) refers to list.o(i.uxListRemove) for uxListRemove
    tasks.o(i.xTaskNotifyWait) refers to tasks.o(i.prvAddCurrentTaskToDelayedList) for prvAddCurrentTaskToDelayedList
    tasks.o(i.xTaskNotifyWait) refers to port_cmsis.o(i.vPortTaskYield) for vPortTaskYield
    tasks.o(i.xTaskNotifyWait) refers to port_cmsis.o(i.vPortExitCritical) for vPortExitCritical
    tasks.o(i.xTaskNotifyWait) refers to list.o(i.vListInsertEnd) for vListInsertEnd
    tasks.o(i.xTaskNotifyWait) refers to tasks.o(.data) for .data
    tasks.o(i.xTaskNotifyWait) refers to tasks.o(.bss) for .bss
    tasks.o(i.xTaskPriorityDisinherit) refers to list.o(i.uxListRemove) for uxListRemove
    tasks.o(i.xTaskPriorityDisinherit) refers to list.o(i.vListInsertEnd) for vListInsertEnd
    tasks.o(i.xTaskPriorityDisinherit) refers to tasks.o(.bss) for .bss
    tasks.o(i.xTaskPriorityDisinherit) refers to tasks.o(.data) for .data
    tasks.o(i.xTaskRemoveFromEventList) refers to list.o(i.uxListRemove) for uxListRemove
    tasks.o(i.xTaskRemoveFromEventList) refers to list.o(i.vListInsertEnd) for vListInsertEnd
    tasks.o(i.xTaskRemoveFromEventList) refers to tasks.o(i.prvResetNextTaskUnblockTime) for prvResetNextTaskUnblockTime
    tasks.o(i.xTaskRemoveFromEventList) refers to tasks.o(.data) for .data
    tasks.o(i.xTaskRemoveFromEventList) refers to tasks.o(.bss) for .bss
    tasks.o(i.xTaskRemoveFromUnorderedEventList) refers to list.o(i.uxListRemove) for uxListRemove
    tasks.o(i.xTaskRemoveFromUnorderedEventList) refers to list.o(i.vListInsertEnd) for vListInsertEnd
    tasks.o(i.xTaskRemoveFromUnorderedEventList) refers to tasks.o(.data) for .data
    tasks.o(i.xTaskRemoveFromUnorderedEventList) refers to tasks.o(.bss) for .bss
    tasks.o(i.xTaskResumeAll) refers to port_cmsis.o(i.vPortEnterCritical) for vPortEnterCritical
    tasks.o(i.xTaskResumeAll) refers to list.o(i.uxListRemove) for uxListRemove
    tasks.o(i.xTaskResumeAll) refers to list.o(i.vListInsertEnd) for vListInsertEnd
    tasks.o(i.xTaskResumeAll) refers to tasks.o(i.xTaskIncrementTick) for xTaskIncrementTick
    tasks.o(i.xTaskResumeAll) refers to port_cmsis.o(i.vPortTaskYield) for vPortTaskYield
    tasks.o(i.xTaskResumeAll) refers to port_cmsis.o(i.vPortExitCritical) for vPortExitCritical
    tasks.o(i.xTaskResumeAll) refers to tasks.o(.data) for .data
    tasks.o(i.xTaskResumeAll) refers to tasks.o(.bss) for .bss
    tasks.o(i.xTaskResumeFromISR) refers to tasks.o(i.ulPortDisableISR) for ulPortDisableISR
    tasks.o(i.xTaskResumeFromISR) refers to tasks.o(i.prvTaskIsTaskSuspended) for prvTaskIsTaskSuspended
    tasks.o(i.xTaskResumeFromISR) refers to list.o(i.uxListRemove) for uxListRemove
    tasks.o(i.xTaskResumeFromISR) refers to list.o(i.vListInsertEnd) for vListInsertEnd
    tasks.o(i.xTaskResumeFromISR) refers to tasks.o(i.vPortRestoreISR) for vPortRestoreISR
    tasks.o(i.xTaskResumeFromISR) refers to tasks.o(.data) for .data
    tasks.o(i.xTaskResumeFromISR) refers to tasks.o(.bss) for .bss
    arm_startup_nrf51.o(RESET) refers to arm_startup_nrf51.o(STACK) for __initial_sp
    arm_startup_nrf51.o(RESET) refers to arm_startup_nrf51.o(.text) for Reset_Handler
    arm_startup_nrf51.o(RESET) refers to port.o(.emb_text) for SVC_Handler
    arm_startup_nrf51.o(RESET) refers to nrf_drv_uart.o(i.UART0_IRQHandler) for UART0_IRQHandler
    arm_startup_nrf51.o(RESET) refers to nrf_drv_spi.o(i.SPI0_TWI0_IRQHandler) for SPI0_TWI0_IRQHandler
    arm_startup_nrf51.o(RESET) refers to nrf_drv_gpiote.o(i.GPIOTE_IRQHandler) for GPIOTE_IRQHandler
    arm_startup_nrf51.o(RESET) refers to port_cmsis_systick.o(i.RTC1_IRQHandler) for RTC1_IRQHandler
    arm_startup_nrf51.o(RESET) refers to softdevice_handler.o(i.SWI2_IRQHandler) for SWI2_IRQHandler
    arm_startup_nrf51.o(.text) refers to system_nrf51.o(i.SystemInit) for SystemInit
    arm_startup_nrf51.o(.text) refers to entry.o(.ARM.Collect$$$$00000000) for __main
    system_nrf51.o(i.SystemCoreClockUpdate) refers to system_nrf51.o(.data) for .data
    system_nrf51.o(i.SystemInit) refers to system_nrf51.o(i.is_manual_peripheral_setup_needed) for is_manual_peripheral_setup_needed
    entry.o(.ARM.Collect$$$$00000000) refers (Special) to entry10a.o(.ARM.Collect$$$$0000000D) for __rt_final_cpp
    entry.o(.ARM.Collect$$$$00000000) refers (Special) to entry11a.o(.ARM.Collect$$$$0000000F) for __rt_final_exit
    entry.o(.ARM.Collect$$$$00000000) refers (Special) to entry7b.o(.ARM.Collect$$$$00000008) for _main_clock
    entry.o(.ARM.Collect$$$$00000000) refers (Special) to entry8b.o(.ARM.Collect$$$$0000000A) for _main_cpp_init
    entry.o(.ARM.Collect$$$$00000000) refers (Special) to entry9a.o(.ARM.Collect$$$$0000000B) for _main_init
    entry.o(.ARM.Collect$$$$00000000) refers (Special) to entry5.o(.ARM.Collect$$$$00000004) for _main_scatterload
    entry.o(.ARM.Collect$$$$00000000) refers (Special) to entry2.o(.ARM.Collect$$$$00000001) for _main_stk
    idiv.o(.text) refers to uidiv.o(.text) for __aeabi_uidivmod
    printfb.o(i.__0fprintf$bare) refers to printfb.o(i._printf_core) for _printf_core
    printfb.o(i.__0fprintf$bare) refers to retarget.o(i.fputc) for fputc
    printfb.o(i.__0printf$bare) refers to printfb.o(i._printf_core) for _printf_core
    printfb.o(i.__0printf$bare) refers to retarget.o(i.fputc) for fputc
    printfb.o(i.__0printf$bare) refers to retarget.o(.data) for __stdout
    printfb.o(i.__0snprintf$bare) refers to printfb.o(i._printf_core) for _printf_core
    printfb.o(i.__0snprintf$bare) refers to printfb.o(i._snputc) for _snputc
    printfb.o(i.__0sprintf$bare) refers to printfb.o(i._printf_core) for _printf_core
    printfb.o(i.__0sprintf$bare) refers to printfb.o(i._sputc) for _sputc
    printfb.o(i.__0vfprintf$bare) refers to printfb.o(i._printf_core) for _printf_core
    printfb.o(i.__0vfprintf$bare) refers to retarget.o(i.fputc) for fputc
    printfb.o(i.__0vprintf$bare) refers to printfb.o(i._printf_core) for _printf_core
    printfb.o(i.__0vprintf$bare) refers to retarget.o(i.fputc) for fputc
    printfb.o(i.__0vprintf$bare) refers to retarget.o(.data) for __stdout
    printfb.o(i.__0vsnprintf$bare) refers to printfb.o(i._printf_core) for _printf_core
    printfb.o(i.__0vsnprintf$bare) refers to printfb.o(i._snputc) for _snputc
    printfb.o(i.__0vsprintf$bare) refers to printfb.o(i._printf_core) for _printf_core
    printfb.o(i.__0vsprintf$bare) refers to printfb.o(i._sputc) for _sputc
    printf0.o(i.__0fprintf$0) refers to printf0.o(i._printf_core) for _printf_core
    printf0.o(i.__0fprintf$0) refers to retarget.o(i.fputc) for fputc
    printf0.o(i.__0printf$0) refers to printf0.o(i._printf_core) for _printf_core
    printf0.o(i.__0printf$0) refers to retarget.o(i.fputc) for fputc
    printf0.o(i.__0printf$0) refers to retarget.o(.data) for __stdout
    printf0.o(i.__0snprintf$0) refers to printf0.o(i._printf_core) for _printf_core
    printf0.o(i.__0snprintf$0) refers to printf0.o(i._snputc) for _snputc
    printf0.o(i.__0sprintf$0) refers to printf0.o(i._printf_core) for _printf_core
    printf0.o(i.__0sprintf$0) refers to printf0.o(i._sputc) for _sputc
    printf0.o(i.__0vfprintf$0) refers to printf0.o(i._printf_core) for _printf_core
    printf0.o(i.__0vfprintf$0) refers to retarget.o(i.fputc) for fputc
    printf0.o(i.__0vprintf$0) refers to printf0.o(i._printf_core) for _printf_core
    printf0.o(i.__0vprintf$0) refers to retarget.o(i.fputc) for fputc
    printf0.o(i.__0vprintf$0) refers to retarget.o(.data) for __stdout
    printf0.o(i.__0vsnprintf$0) refers to printf0.o(i._printf_core) for _printf_core
    printf0.o(i.__0vsnprintf$0) refers to printf0.o(i._snputc) for _snputc
    printf0.o(i.__0vsprintf$0) refers to printf0.o(i._printf_core) for _printf_core
    printf0.o(i.__0vsprintf$0) refers to printf0.o(i._sputc) for _sputc
    printf1.o(i.__0fprintf$1) refers to printf1.o(i._printf_core) for _printf_core
    printf1.o(i.__0fprintf$1) refers to retarget.o(i.fputc) for fputc
    printf1.o(i.__0printf$1) refers to printf1.o(i._printf_core) for _printf_core
    printf1.o(i.__0printf$1) refers to retarget.o(i.fputc) for fputc
    printf1.o(i.__0printf$1) refers to retarget.o(.data) for __stdout
    printf1.o(i.__0snprintf$1) refers to printf1.o(i._printf_core) for _printf_core
    printf1.o(i.__0snprintf$1) refers to printf1.o(i._snputc) for _snputc
    printf1.o(i.__0sprintf$1) refers to printf1.o(i._printf_core) for _printf_core
    printf1.o(i.__0sprintf$1) refers to printf1.o(i._sputc) for _sputc
    printf1.o(i.__0vfprintf$1) refers to printf1.o(i._printf_core) for _printf_core
    printf1.o(i.__0vfprintf$1) refers to retarget.o(i.fputc) for fputc
    printf1.o(i.__0vprintf$1) refers to printf1.o(i._printf_core) for _printf_core
    printf1.o(i.__0vprintf$1) refers to retarget.o(i.fputc) for fputc
    printf1.o(i.__0vprintf$1) refers to retarget.o(.data) for __stdout
    printf1.o(i.__0vsnprintf$1) refers to printf1.o(i._printf_core) for _printf_core
    printf1.o(i.__0vsnprintf$1) refers to printf1.o(i._snputc) for _snputc
    printf1.o(i.__0vsprintf$1) refers to printf1.o(i._printf_core) for _printf_core
    printf1.o(i.__0vsprintf$1) refers to printf1.o(i._sputc) for _sputc
    printf1.o(i._printf_core) refers to uidiv.o(.text) for __aeabi_uidivmod
    printf2.o(i.__0fprintf$2) refers to printf2.o(i._printf_core) for _printf_core
    printf2.o(i.__0fprintf$2) refers to retarget.o(i.fputc) for fputc
    printf2.o(i.__0printf$2) refers to printf2.o(i._printf_core) for _printf_core
    printf2.o(i.__0printf$2) refers to retarget.o(i.fputc) for fputc
    printf2.o(i.__0printf$2) refers to retarget.o(.data) for __stdout
    printf2.o(i.__0snprintf$2) refers to printf2.o(i._printf_core) for _printf_core
    printf2.o(i.__0snprintf$2) refers to printf2.o(i._snputc) for _snputc
    printf2.o(i.__0sprintf$2) refers to printf2.o(i._printf_core) for _printf_core
    printf2.o(i.__0sprintf$2) refers to printf2.o(i._sputc) for _sputc
    printf2.o(i.__0vfprintf$2) refers to printf2.o(i._printf_core) for _printf_core
    printf2.o(i.__0vfprintf$2) refers to retarget.o(i.fputc) for fputc
    printf2.o(i.__0vprintf$2) refers to printf2.o(i._printf_core) for _printf_core
    printf2.o(i.__0vprintf$2) refers to retarget.o(i.fputc) for fputc
    printf2.o(i.__0vprintf$2) refers to retarget.o(.data) for __stdout
    printf2.o(i.__0vsnprintf$2) refers to printf2.o(i._printf_core) for _printf_core
    printf2.o(i.__0vsnprintf$2) refers to printf2.o(i._snputc) for _snputc
    printf2.o(i.__0vsprintf$2) refers to printf2.o(i._printf_core) for _printf_core
    printf2.o(i.__0vsprintf$2) refers to printf2.o(i._sputc) for _sputc
    printf3.o(i.__0fprintf$3) refers to printf3.o(i._printf_core) for _printf_core
    printf3.o(i.__0fprintf$3) refers to retarget.o(i.fputc) for fputc
    printf3.o(i.__0printf$3) refers to printf3.o(i._printf_core) for _printf_core
    printf3.o(i.__0printf$3) refers to retarget.o(i.fputc) for fputc
    printf3.o(i.__0printf$3) refers to retarget.o(.data) for __stdout
    printf3.o(i.__0snprintf$3) refers to printf3.o(i._printf_core) for _printf_core
    printf3.o(i.__0snprintf$3) refers to printf3.o(i._snputc) for _snputc
    printf3.o(i.__0sprintf$3) refers to printf3.o(i._printf_core) for _printf_core
    printf3.o(i.__0sprintf$3) refers to printf3.o(i._sputc) for _sputc
    printf3.o(i.__0vfprintf$3) refers to printf3.o(i._printf_core) for _printf_core
    printf3.o(i.__0vfprintf$3) refers to retarget.o(i.fputc) for fputc
    printf3.o(i.__0vprintf$3) refers to printf3.o(i._printf_core) for _printf_core
    printf3.o(i.__0vprintf$3) refers to retarget.o(i.fputc) for fputc
    printf3.o(i.__0vprintf$3) refers to retarget.o(.data) for __stdout
    printf3.o(i.__0vsnprintf$3) refers to printf3.o(i._printf_core) for _printf_core
    printf3.o(i.__0vsnprintf$3) refers to printf3.o(i._snputc) for _snputc
    printf3.o(i.__0vsprintf$3) refers to printf3.o(i._printf_core) for _printf_core
    printf3.o(i.__0vsprintf$3) refers to printf3.o(i._sputc) for _sputc
    printf3.o(i._printf_core) refers to uidiv.o(.text) for __aeabi_uidivmod
    printf4.o(i.__0fprintf$4) refers to printf4.o(i._printf_core) for _printf_core
    printf4.o(i.__0fprintf$4) refers to retarget.o(i.fputc) for fputc
    printf4.o(i.__0printf$4) refers to printf4.o(i._printf_core) for _printf_core
    printf4.o(i.__0printf$4) refers to retarget.o(i.fputc) for fputc
    printf4.o(i.__0printf$4) refers to retarget.o(.data) for __stdout
    printf4.o(i.__0snprintf$4) refers to printf4.o(i._printf_core) for _printf_core
    printf4.o(i.__0snprintf$4) refers to printf4.o(i._snputc) for _snputc
    printf4.o(i.__0sprintf$4) refers to printf4.o(i._printf_core) for _printf_core
    printf4.o(i.__0sprintf$4) refers to printf4.o(i._sputc) for _sputc
    printf4.o(i.__0vfprintf$4) refers to printf4.o(i._printf_core) for _printf_core
    printf4.o(i.__0vfprintf$4) refers to retarget.o(i.fputc) for fputc
    printf4.o(i.__0vprintf$4) refers to printf4.o(i._printf_core) for _printf_core
    printf4.o(i.__0vprintf$4) refers to retarget.o(i.fputc) for fputc
    printf4.o(i.__0vprintf$4) refers to retarget.o(.data) for __stdout
    printf4.o(i.__0vsnprintf$4) refers to printf4.o(i._printf_core) for _printf_core
    printf4.o(i.__0vsnprintf$4) refers to printf4.o(i._snputc) for _snputc
    printf4.o(i.__0vsprintf$4) refers to printf4.o(i._printf_core) for _printf_core
    printf4.o(i.__0vsprintf$4) refers to printf4.o(i._sputc) for _sputc
    printf4.o(i._printf_core) refers to uldiv.o(.text) for __aeabi_uldivmod
    printf5.o(i.__0fprintf$5) refers to printf5.o(i._printf_core) for _printf_core
    printf5.o(i.__0fprintf$5) refers to retarget.o(i.fputc) for fputc
    printf5.o(i.__0printf$5) refers to printf5.o(i._printf_core) for _printf_core
    printf5.o(i.__0printf$5) refers to retarget.o(i.fputc) for fputc
    printf5.o(i.__0printf$5) refers to retarget.o(.data) for __stdout
    printf5.o(i.__0snprintf$5) refers to printf5.o(i._printf_core) for _printf_core
    printf5.o(i.__0snprintf$5) refers to printf5.o(i._snputc) for _snputc
    printf5.o(i.__0sprintf$5) refers to printf5.o(i._printf_core) for _printf_core
    printf5.o(i.__0sprintf$5) refers to printf5.o(i._sputc) for _sputc
    printf5.o(i.__0vfprintf$5) refers to printf5.o(i._printf_core) for _printf_core
    printf5.o(i.__0vfprintf$5) refers to retarget.o(i.fputc) for fputc
    printf5.o(i.__0vprintf$5) refers to printf5.o(i._printf_core) for _printf_core
    printf5.o(i.__0vprintf$5) refers to retarget.o(i.fputc) for fputc
    printf5.o(i.__0vprintf$5) refers to retarget.o(.data) for __stdout
    printf5.o(i.__0vsnprintf$5) refers to printf5.o(i._printf_core) for _printf_core
    printf5.o(i.__0vsnprintf$5) refers to printf5.o(i._snputc) for _snputc
    printf5.o(i.__0vsprintf$5) refers to printf5.o(i._printf_core) for _printf_core
    printf5.o(i.__0vsprintf$5) refers to printf5.o(i._sputc) for _sputc
    printf5.o(i._printf_core) refers to uldiv.o(.text) for __aeabi_uldivmod
    printf6.o(i.__0fprintf$6) refers to printf6.o(i._printf_core) for _printf_core
    printf6.o(i.__0fprintf$6) refers to retarget.o(i.fputc) for fputc
    printf6.o(i.__0printf$6) refers to printf6.o(i._printf_core) for _printf_core
    printf6.o(i.__0printf$6) refers to retarget.o(i.fputc) for fputc
    printf6.o(i.__0printf$6) refers to retarget.o(.data) for __stdout
    printf6.o(i.__0snprintf$6) refers to printf6.o(i._printf_core) for _printf_core
    printf6.o(i.__0snprintf$6) refers to printf6.o(i._snputc) for _snputc
    printf6.o(i.__0sprintf$6) refers to printf6.o(i._printf_core) for _printf_core
    printf6.o(i.__0sprintf$6) refers to printf6.o(i._sputc) for _sputc
    printf6.o(i.__0vfprintf$6) refers to printf6.o(i._printf_core) for _printf_core
    printf6.o(i.__0vfprintf$6) refers to retarget.o(i.fputc) for fputc
    printf6.o(i.__0vprintf$6) refers to printf6.o(i._printf_core) for _printf_core
    printf6.o(i.__0vprintf$6) refers to retarget.o(i.fputc) for fputc
    printf6.o(i.__0vprintf$6) refers to retarget.o(.data) for __stdout
    printf6.o(i.__0vsnprintf$6) refers to printf6.o(i._printf_core) for _printf_core
    printf6.o(i.__0vsnprintf$6) refers to printf6.o(i._snputc) for _snputc
    printf6.o(i.__0vsprintf$6) refers to printf6.o(i._printf_core) for _printf_core
    printf6.o(i.__0vsprintf$6) refers to printf6.o(i._sputc) for _sputc
    printf6.o(i._printf_core) refers to printf6.o(i._printf_pre_padding) for _printf_pre_padding
    printf6.o(i._printf_core) refers to printf6.o(i._printf_post_padding) for _printf_post_padding
    printf6.o(i._printf_core) refers to uidiv.o(.text) for __aeabi_uidivmod
    printf7.o(i.__0fprintf$7) refers to printf7.o(i._printf_core) for _printf_core
    printf7.o(i.__0fprintf$7) refers to retarget.o(i.fputc) for fputc
    printf7.o(i.__0printf$7) refers to printf7.o(i._printf_core) for _printf_core
    printf7.o(i.__0printf$7) refers to retarget.o(i.fputc) for fputc
    printf7.o(i.__0printf$7) refers to retarget.o(.data) for __stdout
    printf7.o(i.__0snprintf$7) refers to printf7.o(i._printf_core) for _printf_core
    printf7.o(i.__0snprintf$7) refers to printf7.o(i._snputc) for _snputc
    printf7.o(i.__0sprintf$7) refers to printf7.o(i._printf_core) for _printf_core
    printf7.o(i.__0sprintf$7) refers to printf7.o(i._sputc) for _sputc
    printf7.o(i.__0vfprintf$7) refers to printf7.o(i._printf_core) for _printf_core
    printf7.o(i.__0vfprintf$7) refers to retarget.o(i.fputc) for fputc
    printf7.o(i.__0vprintf$7) refers to printf7.o(i._printf_core) for _printf_core
    printf7.o(i.__0vprintf$7) refers to retarget.o(i.fputc) for fputc
    printf7.o(i.__0vprintf$7) refers to retarget.o(.data) for __stdout
    printf7.o(i.__0vsnprintf$7) refers to printf7.o(i._printf_core) for _printf_core
    printf7.o(i.__0vsnprintf$7) refers to printf7.o(i._snputc) for _snputc
    printf7.o(i.__0vsprintf$7) refers to printf7.o(i._printf_core) for _printf_core
    printf7.o(i.__0vsprintf$7) refers to printf7.o(i._sputc) for _sputc
    printf7.o(i._printf_core) refers to printf7.o(i._printf_pre_padding) for _printf_pre_padding
    printf7.o(i._printf_core) refers to printf7.o(i._printf_post_padding) for _printf_post_padding
    printf7.o(i._printf_core) refers to uldiv.o(.text) for __aeabi_uldivmod
    printf8.o(i.__0fprintf$8) refers to printf8.o(i._printf_core) for _printf_core
    printf8.o(i.__0fprintf$8) refers to retarget.o(i.fputc) for fputc
    printf8.o(i.__0printf$8) refers to printf8.o(i._printf_core) for _printf_core
    printf8.o(i.__0printf$8) refers to retarget.o(i.fputc) for fputc
    printf8.o(i.__0printf$8) refers to retarget.o(.data) for __stdout
    printf8.o(i.__0snprintf$8) refers to printf8.o(i._printf_core) for _printf_core
    printf8.o(i.__0snprintf$8) refers to printf8.o(i._snputc) for _snputc
    printf8.o(i.__0sprintf$8) refers to printf8.o(i._printf_core) for _printf_core
    printf8.o(i.__0sprintf$8) refers to printf8.o(i._sputc) for _sputc
    printf8.o(i.__0vfprintf$8) refers to printf8.o(i._printf_core) for _printf_core
    printf8.o(i.__0vfprintf$8) refers to retarget.o(i.fputc) for fputc
    printf8.o(i.__0vprintf$8) refers to printf8.o(i._printf_core) for _printf_core
    printf8.o(i.__0vprintf$8) refers to retarget.o(i.fputc) for fputc
    printf8.o(i.__0vprintf$8) refers to retarget.o(.data) for __stdout
    printf8.o(i.__0vsnprintf$8) refers to printf8.o(i._printf_core) for _printf_core
    printf8.o(i.__0vsnprintf$8) refers to printf8.o(i._snputc) for _snputc
    printf8.o(i.__0vsprintf$8) refers to printf8.o(i._printf_core) for _printf_core
    printf8.o(i.__0vsprintf$8) refers to printf8.o(i._sputc) for _sputc
    printf8.o(i._printf_core) refers to printf8.o(i._printf_pre_padding) for _printf_pre_padding
    printf8.o(i._printf_core) refers to printf8.o(i._printf_post_padding) for _printf_post_padding
    printf8.o(i._printf_core) refers to uldiv.o(.text) for __aeabi_uldivmod
    printfa.o(i.__0fprintf) refers (Special) to iusefp.o(.text) for __I$use$fp
    printfa.o(i.__0fprintf) refers to printfa.o(i._printf_core) for _printf_core
    printfa.o(i.__0fprintf) refers to retarget.o(i.fputc) for fputc
    printfa.o(i.__0printf) refers (Special) to iusefp.o(.text) for __I$use$fp
    printfa.o(i.__0printf) refers to printfa.o(i._printf_core) for _printf_core
    printfa.o(i.__0printf) refers to retarget.o(i.fputc) for fputc
    printfa.o(i.__0printf) refers to retarget.o(.data) for __stdout
    printfa.o(i.__0snprintf) refers (Special) to iusefp.o(.text) for __I$use$fp
    printfa.o(i.__0snprintf) refers to printfa.o(i._printf_core) for _printf_core
    printfa.o(i.__0snprintf) refers to printfa.o(i._snputc) for _snputc
    printfa.o(i.__0sprintf) refers (Special) to iusefp.o(.text) for __I$use$fp
    printfa.o(i.__0sprintf) refers to printfa.o(i._printf_core) for _printf_core
    printfa.o(i.__0sprintf) refers to printfa.o(i._sputc) for _sputc
    printfa.o(i.__0vfprintf) refers (Special) to iusefp.o(.text) for __I$use$fp
    printfa.o(i.__0vfprintf) refers to printfa.o(i._printf_core) for _printf_core
    printfa.o(i.__0vfprintf) refers to retarget.o(i.fputc) for fputc
    printfa.o(i.__0vprintf) refers (Special) to iusefp.o(.text) for __I$use$fp
    printfa.o(i.__0vprintf) refers to printfa.o(i._printf_core) for _printf_core
    printfa.o(i.__0vprintf) refers to retarget.o(i.fputc) for fputc
    printfa.o(i.__0vprintf) refers to retarget.o(.data) for __stdout
    printfa.o(i.__0vsnprintf) refers (Special) to iusefp.o(.text) for __I$use$fp
    printfa.o(i.__0vsnprintf) refers to printfa.o(i._printf_core) for _printf_core
    printfa.o(i.__0vsnprintf) refers to printfa.o(i._snputc) for _snputc
    printfa.o(i.__0vsprintf) refers (Special) to iusefp.o(.text) for __I$use$fp
    printfa.o(i.__0vsprintf) refers to printfa.o(i._printf_core) for _printf_core
    printfa.o(i.__0vsprintf) refers to printfa.o(i._sputc) for _sputc
    printfa.o(i._fp_digits) refers (Special) to iusefp.o(.text) for __I$use$fp
    printfa.o(i._fp_digits) refers to dmul.o(.text) for __aeabi_dmul
    printfa.o(i._fp_digits) refers to ddiv.o(.text) for __aeabi_ddiv
    printfa.o(i._fp_digits) refers to cdrcmple.o(.text) for __aeabi_cdrcmple
    printfa.o(i._fp_digits) refers to dadd.o(.text) for __aeabi_dadd
    printfa.o(i._fp_digits) refers to dfixul.o(.text) for __aeabi_d2ulz
    printfa.o(i._fp_digits) refers to uldiv.o(.text) for __aeabi_uldivmod
    printfa.o(i._printf_core) refers (Special) to iusefp.o(.text) for __I$use$fp
    printfa.o(i._printf_core) refers to printfa.o(i._printf_pre_padding) for _printf_pre_padding
    printfa.o(i._printf_core) refers to uldiv.o(.text) for __aeabi_uldivmod
    printfa.o(i._printf_core) refers to printfa.o(i._printf_post_padding) for _printf_post_padding
    printfa.o(i._printf_core) refers to printfa.o(i._fp_digits) for _fp_digits
    printfa.o(i._printf_core) refers to uidiv.o(.text) for __aeabi_uidivmod
    printfa.o(i._printf_post_padding) refers (Special) to iusefp.o(.text) for __I$use$fp
    printfa.o(i._printf_pre_padding) refers (Special) to iusefp.o(.text) for __I$use$fp
    printfa.o(i._snputc) refers (Special) to iusefp.o(.text) for __I$use$fp
    printfa.o(i._sputc) refers (Special) to iusefp.o(.text) for __I$use$fp
    malloc.o(i.free) refers to mvars.o(.data) for __microlib_freelist
    malloc.o(i.malloc) refers to mvars.o(.data) for __microlib_freelist_initialised
    malloc.o(i.malloc) refers to mvars.o(.data) for __microlib_freelist
    malloc.o(i.malloc) refers to arm_startup_nrf51.o(HEAP) for __heap_base
    mallocr.o(i.__free$realloc) refers to mvars.o(.data) for __microlib_freelist
    mallocr.o(i.__malloc$realloc) refers to mallocr.o(i.internal_alloc) for internal_alloc
    mallocr.o(i.__malloc$realloc) refers to mvars.o(.data) for __microlib_freelist_initialised
    mallocr.o(i.__malloc$realloc) refers to arm_startup_nrf51.o(HEAP) for __heap_base
    mallocr.o(i.__malloc$realloc) refers to mvars.o(.data) for __microlib_freelist
    mallocr.o(i.internal_alloc) refers to memmovea.o(.text) for __aeabi_memcpy
    mallocr.o(i.internal_alloc) refers to mvars.o(.data) for __microlib_freelist
    mallocr.o(i.realloc) refers to mallocr.o(i.__free$realloc) for __free$realloc
    mallocr.o(i.realloc) refers to mallocr.o(i.internal_alloc) for internal_alloc
    mallocr.o(i.realloc) refers to mallocr.o(i.__malloc$realloc) for __malloc$realloc
    mallocr.o(i.realloc) refers to mvars.o(.data) for __microlib_freelist
    malloca.o(i.__aligned_malloc) refers to mvars.o(.data) for __microlib_freelist
    malloca.o(i.__aligned_malloc) refers to mvars.o(.data) for __microlib_freelist_initialised
    malloca.o(i.__aligned_malloc) refers to arm_startup_nrf51.o(HEAP) for __heap_base
    malloca.o(i.__free$memalign) refers to mvars.o(.data) for __microlib_freelist
    malloca.o(i.__malloc$memalign) refers to malloca.o(i.__aligned_malloc) for __aligned_malloc
    mallocra.o(i.__aligned_malloc$realloc) refers to mallocra.o(i.internal_alloc) for internal_alloc
    mallocra.o(i.__aligned_malloc$realloc) refers to arm_startup_nrf51.o(HEAP) for __heap_base
    mallocra.o(i.__aligned_malloc$realloc) refers to mvars.o(.data) for __microlib_freelist
    mallocra.o(i.__aligned_malloc$realloc) refers to mvars.o(.data) for __microlib_freelist_initialised
    mallocra.o(i.__free$realloc$memalign) refers to mvars.o(.data) for __microlib_freelist
    mallocra.o(i.__malloc$realloc$memalign) refers to mallocra.o(i.__aligned_malloc$realloc) for __aligned_malloc$realloc
    mallocra.o(i.__realloc$memalign) refers to mallocra.o(i.__free$realloc$memalign) for __free$realloc$memalign
    mallocra.o(i.__realloc$memalign) refers to mallocra.o(i.internal_alloc) for internal_alloc
    mallocra.o(i.__realloc$memalign) refers to mallocra.o(i.__malloc$realloc$memalign) for __malloc$realloc$memalign
    mallocra.o(i.__realloc$memalign) refers to mvars.o(.data) for __microlib_freelist
    mallocra.o(i.internal_alloc) refers to memmovea.o(.text) for __aeabi_memcpy
    mallocra.o(i.internal_alloc) refers to mvars.o(.data) for __microlib_freelist
    entry2.o(.ARM.Collect$$$$00000001) refers to entry2.o(.ARM.Collect$$$$00002712) for __lit__00000000
    entry2.o(.ARM.Collect$$$$00002712) refers to arm_startup_nrf51.o(STACK) for __initial_sp
    entry2.o(__vectab_stack_and_reset_area) refers to arm_startup_nrf51.o(STACK) for __initial_sp
    entry2.o(__vectab_stack_and_reset_area) refers to entry.o(.ARM.Collect$$$$00000000) for __main
    entry5.o(.ARM.Collect$$$$00000004) refers to init.o(.text) for __scatterload
    entry9a.o(.ARM.Collect$$$$0000000B) refers to main.o(i.main) for main
    entry9b.o(.ARM.Collect$$$$0000000C) refers to main.o(i.main) for main
    uldiv.o(.text) refers to llushr.o(.text) for __aeabi_llsr
    uldiv.o(.text) refers to llshl.o(.text) for __aeabi_llsl
    dadd.o(.text) refers to llshl.o(.text) for __aeabi_llsl
    dadd.o(.text) refers to llsshr.o(.text) for __aeabi_lasr
    dadd.o(.text) refers to depilogue.o(.text) for _double_epilogue
    dmul.o(.text) refers to depilogue.o(.text) for _double_epilogue
    ddiv.o(.text) refers to depilogue.o(.text) for _double_round
    dfixul.o(.text) refers to llushr.o(.text) for __aeabi_llsr
    dfixul.o(.text) refers to llshl.o(.text) for __aeabi_llsl
    init.o(.text) refers to entry5.o(.ARM.Collect$$$$00000004) for __main_after_scatterload
    depilogue.o(.text) refers to depilogue.o(i.__ARM_clz) for __ARM_clz
    depilogue.o(.text) refers to llshl.o(.text) for __aeabi_llsl
    depilogue.o(.text) refers to llushr.o(.text) for __aeabi_llsr
    nrf_log.o(i.log_uart_write_string) refers to app_uart_fifo.o(i.app_uart_put) for app_uart_put
    nrf_log.o(i.log_uart_write_string_many) refers to nrf_log.o(i.log_uart_write_string) for log_uart_write_string


==============================================================================

Removing Unused input sections from the image.

    Removing main.o(.rev16_text), (4 bytes).
    Removing main.o(.revsh_text), (4 bytes).
    Removing main.o(.emb_text), (30 bytes).
    Removing main.o(i.ASSERTC), (8 bytes).
    Removing main.o(i.ASSERT_EQ), (10 bytes).
    Removing main.o(i.app_error_handler_main), (2 bytes).
    Removing main.o(i.assert_nrf_callback), (20 bytes).
    Removing main.o(i.bsp_configuration), (36 bytes).
    Removing main.o(i.spi_intan_id_read_handler), (32 bytes).
    Removing main.o(i.uart_error_handle), (20 bytes).
    Removing main.o(.data), (4 bytes).
    Removing ble_advertising.o(.rev16_text), (4 bytes).
    Removing ble_advertising.o(.revsh_text), (4 bytes).
    Removing ble_advertising.o(i.ble_advertising_peer_addr_reply), (48 bytes).
    Removing ble_advertising.o(i.ble_advertising_restart_without_whitelist), (64 bytes).
    Removing ble_advertising.o(i.ble_advertising_whitelist_reply), (84 bytes).
    Removing ble_advdata.o(.rev16_text), (4 bytes).
    Removing ble_advdata.o(.revsh_text), (4 bytes).
    Removing ble_conn_params.o(.rev16_text), (4 bytes).
    Removing ble_conn_params.o(.revsh_text), (4 bytes).
    Removing ble_conn_params.o(i.ble_conn_params_change_conn_params), (80 bytes).
    Removing ble_conn_params.o(i.ble_conn_params_init), (84 bytes).
    Removing ble_conn_params.o(i.ble_conn_params_on_ble_evt), (144 bytes).
    Removing ble_conn_params.o(i.ble_conn_params_stop), (16 bytes).
    Removing ble_conn_params.o(i.conn_params_negotiation), (104 bytes).
    Removing ble_conn_params.o(i.is_conn_params_ok), (28 bytes).
    Removing ble_conn_params.o(i.update_timeout_handler), (100 bytes).
    Removing ble_conn_params.o(.bss), (32 bytes).
    Removing ble_conn_params.o(.bss), (28 bytes).
    Removing ble_conn_params.o(.constdata), (4 bytes).
    Removing ble_conn_params.o(.data), (20 bytes).
    Removing ble_srv_common.o(.rev16_text), (4 bytes).
    Removing ble_srv_common.o(.revsh_text), (4 bytes).
    Removing ble_srv_common.o(i.ble_srv_ascii_to_utf8), (18 bytes).
    Removing ble_srv_common.o(i.ble_srv_report_ref_encode), (12 bytes).
    Removing ble_srv_common.o(i.characteristic_add), (400 bytes).
    Removing ble_srv_common.o(i.descriptor_add), (176 bytes).
    Removing ble_srv_common.o(i.set_security_req), (46 bytes).
    Removing device_manager_peripheral.o(.rev16_text), (4 bytes).
    Removing device_manager_peripheral.o(.revsh_text), (4 bytes).
    Removing device_manager_peripheral.o(i.dm_application_context_delete), (8 bytes).
    Removing device_manager_peripheral.o(i.dm_application_context_get), (8 bytes).
    Removing device_manager_peripheral.o(i.dm_application_context_set), (8 bytes).
    Removing device_manager_peripheral.o(i.dm_application_instance_set), (64 bytes).
    Removing device_manager_peripheral.o(i.dm_device_add), (8 bytes).
    Removing device_manager_peripheral.o(i.dm_device_delete), (88 bytes).
    Removing device_manager_peripheral.o(i.dm_device_delete_all), (88 bytes).
    Removing device_manager_peripheral.o(i.dm_distributed_keys_get), (176 bytes).
    Removing device_manager_peripheral.o(i.dm_handle_get), (72 bytes).
    Removing device_manager_peripheral.o(i.dm_peer_addr_get), (128 bytes).
    Removing device_manager_peripheral.o(i.dm_peer_addr_set), (136 bytes).
    Removing device_manager_peripheral.o(i.dm_security_setup_req), (92 bytes).
    Removing device_manager_peripheral.o(i.dm_security_status_req), (112 bytes).
    Removing device_manager_peripheral.o(i.dm_service_context_delete), (88 bytes).
    Removing device_manager_peripheral.o(i.dm_service_context_get), (184 bytes).
    Removing device_manager_peripheral.o(i.dm_service_context_set), (164 bytes).
    Removing device_manager_peripheral.o(i.dm_whitelist_create), (180 bytes).
    Removing device_manager_peripheral.o(.constdata), (4 bytes).
    Removing nrf_delay.o(.rev16_text), (4 bytes).
    Removing nrf_delay.o(.revsh_text), (4 bytes).
    Removing nrf_drv_common.o(.rev16_text), (4 bytes).
    Removing nrf_drv_common.o(.revsh_text), (4 bytes).
    Removing nrf_drv_gpiote.o(.rev16_text), (4 bytes).
    Removing nrf_drv_gpiote.o(.revsh_text), (4 bytes).
    Removing nrf_drv_gpiote.o(i.channel_free), (28 bytes).
    Removing nrf_drv_gpiote.o(i.channel_port_alloc), (72 bytes).
    Removing nrf_drv_gpiote.o(i.nrf_drv_gpiote_in_event_addr_get), (24 bytes).
    Removing nrf_drv_gpiote.o(i.nrf_drv_gpiote_in_event_disable), (72 bytes).
    Removing nrf_drv_gpiote.o(i.nrf_drv_gpiote_in_event_enable), (160 bytes).
    Removing nrf_drv_gpiote.o(i.nrf_drv_gpiote_in_init), (164 bytes).
    Removing nrf_drv_gpiote.o(i.nrf_drv_gpiote_in_is_set), (20 bytes).
    Removing nrf_drv_gpiote.o(i.nrf_drv_gpiote_in_uninit), (76 bytes).
    Removing nrf_drv_gpiote.o(i.nrf_drv_gpiote_init), (84 bytes).
    Removing nrf_drv_gpiote.o(i.nrf_drv_gpiote_is_init), (16 bytes).
    Removing nrf_drv_gpiote.o(i.nrf_drv_gpiote_out_clear), (16 bytes).
    Removing nrf_drv_gpiote.o(i.nrf_drv_gpiote_out_init), (152 bytes).
    Removing nrf_drv_gpiote.o(i.nrf_drv_gpiote_out_set), (16 bytes).
    Removing nrf_drv_gpiote.o(i.nrf_drv_gpiote_out_task_addr_get), (20 bytes).
    Removing nrf_drv_gpiote.o(i.nrf_drv_gpiote_out_task_disable), (32 bytes).
    Removing nrf_drv_gpiote.o(i.nrf_drv_gpiote_out_task_enable), (48 bytes).
    Removing nrf_drv_gpiote.o(i.nrf_drv_gpiote_out_task_force), (44 bytes).
    Removing nrf_drv_gpiote.o(i.nrf_drv_gpiote_out_task_trigger), (24 bytes).
    Removing nrf_drv_gpiote.o(i.nrf_drv_gpiote_out_toggle), (24 bytes).
    Removing nrf_drv_gpiote.o(i.nrf_drv_gpiote_out_uninit), (68 bytes).
    Removing nrf_drv_gpiote.o(i.nrf_drv_gpiote_uninit), (56 bytes).
    Removing nrf_drv_gpiote.o(i.nrf_gpio_cfg), (36 bytes).
    Removing nrf_drv_gpiote.o(i.nrf_gpio_cfg_default), (18 bytes).
    Removing nrf_drv_gpiote.o(i.pin_in_use_by_port), (24 bytes).
    Removing nrf_drv_gpiote.o(i.pin_in_use_by_te), (24 bytes).
    Removing nrf_drv_uart.o(.rev16_text), (4 bytes).
    Removing nrf_drv_uart.o(.revsh_text), (4 bytes).
    Removing nrf_drv_uart.o(i.nrf_drv_uart_errorsrc_get), (28 bytes).
    Removing nrf_drv_uart.o(i.nrf_drv_uart_rx_abort), (24 bytes).
    Removing nrf_drv_uart.o(i.nrf_drv_uart_rx_disable), (24 bytes).
    Removing nrf_drv_uart.o(i.nrf_drv_uart_tx_abort), (44 bytes).
    Removing nrf_drv_uart.o(i.nrf_drv_uart_uninit), (108 bytes).
    Removing nrf_drv_uart.o(i.nrf_gpio_cfg_default), (18 bytes).
    Removing pstorage.o(.rev16_text), (4 bytes).
    Removing pstorage.o(.revsh_text), (4 bytes).
    Removing nrf_drv_spi.o(.rev16_text), (4 bytes).
    Removing nrf_drv_spi.o(.revsh_text), (4 bytes).
    Removing nrf_drv_clock.o(.rev16_text), (4 bytes).
    Removing nrf_drv_clock.o(.revsh_text), (4 bytes).
    Removing nrf_drv_clock.o(i.current_int_priority_get), (68 bytes).
    Removing nrf_drv_clock.o(i.nrf_drv_clock_calibration_abort), (4 bytes).
    Removing nrf_drv_clock.o(i.nrf_drv_clock_calibration_start), (4 bytes).
    Removing nrf_drv_clock.o(i.nrf_drv_clock_hfclk_is_running), (16 bytes).
    Removing nrf_drv_clock.o(i.nrf_drv_clock_hfclk_release), (92 bytes).
    Removing nrf_drv_clock.o(i.nrf_drv_clock_hfclk_request), (124 bytes).
    Removing nrf_drv_clock.o(i.nrf_drv_clock_init), (44 bytes).
    Removing nrf_drv_clock.o(i.nrf_drv_clock_is_calibrating), (4 bytes).
    Removing nrf_drv_clock.o(i.nrf_drv_clock_lfclk_is_running), (4 bytes).
    Removing nrf_drv_clock.o(i.nrf_drv_clock_lfclk_release), (2 bytes).
    Removing nrf_drv_clock.o(i.nrf_drv_clock_uninit), (16 bytes).
    Removing nrf_soc.o(.rev16_text), (4 bytes).
    Removing nrf_soc.o(.revsh_text), (4 bytes).
    Removing nrf_soc.o(i.sd_app_evt_wait), (6 bytes).
    Removing nrf_soc.o(i.sd_nvic_ClearPendingIRQ), (20 bytes).
    Removing nrf_soc.o(i.sd_nvic_DisableIRQ), (20 bytes).
    Removing nrf_soc.o(i.sd_nvic_EnableIRQ), (20 bytes).
    Removing nrf_soc.o(i.sd_nvic_GetPendingIRQ), (40 bytes).
    Removing nrf_soc.o(i.sd_nvic_GetPriority), (64 bytes).
    Removing nrf_soc.o(i.sd_nvic_SetPendingIRQ), (20 bytes).
    Removing nrf_soc.o(i.sd_nvic_SetPriority), (72 bytes).
    Removing nrf_soc.o(i.sd_nvic_SystemReset), (28 bytes).
    Removing nrf_soc.o(i.sd_nvic_critical_region_enter), (32 bytes).
    Removing nrf_soc.o(i.sd_nvic_critical_region_exit), (24 bytes).
    Removing nrf_soc.o(.data), (1 bytes).
    Removing app_uart_fifo.o(.rev16_text), (4 bytes).
    Removing app_uart_fifo.o(.revsh_text), (4 bytes).
    Removing app_uart_fifo.o(i.app_uart_close), (10 bytes).
    Removing app_uart_fifo.o(i.app_uart_flush), (28 bytes).
    Removing segger_rtt.o(i.SEGGER_RTT_ConfigDownBuffer), (76 bytes).
    Removing segger_rtt.o(i.SEGGER_RTT_ConfigUpBuffer), (76 bytes).
    Removing segger_rtt.o(i.SEGGER_RTT_GetKey), (28 bytes).
    Removing segger_rtt.o(i.SEGGER_RTT_HasData), (20 bytes).
    Removing segger_rtt.o(i.SEGGER_RTT_HasKey), (36 bytes).
    Removing segger_rtt.o(i.SEGGER_RTT_Init), (20 bytes).
    Removing segger_rtt.o(i.SEGGER_RTT_Read), (8 bytes).
    Removing segger_rtt.o(i.SEGGER_RTT_ReadNoLock), (128 bytes).
    Removing segger_rtt.o(i.SEGGER_RTT_SetNameDownBuffer), (48 bytes).
    Removing segger_rtt.o(i.SEGGER_RTT_SetNameUpBuffer), (48 bytes).
    Removing segger_rtt.o(i.SEGGER_RTT_SetTerminal), (104 bytes).
    Removing segger_rtt.o(i.SEGGER_RTT_TerminalOut), (148 bytes).
    Removing segger_rtt.o(i.SEGGER_RTT_WaitKey), (12 bytes).
    Removing segger_rtt.o(i.SEGGER_RTT_Write), (36 bytes).
    Removing segger_rtt.o(i.SEGGER_RTT_WriteNoLock), (92 bytes).
    Removing segger_rtt.o(i.SEGGER_RTT_WriteSkipNoLock), (108 bytes).
    Removing segger_rtt.o(i.SEGGER_RTT_WriteString), (24 bytes).
    Removing segger_rtt.o(i._DoInit), (108 bytes).
    Removing segger_rtt.o(i._GetAvailWriteSpace), (22 bytes).
    Removing segger_rtt.o(i._PostTerminalSwitch), (32 bytes).
    Removing segger_rtt.o(i._WriteBlocking), (96 bytes).
    Removing segger_rtt.o(i._WriteNoCheck), (60 bytes).
    Removing segger_rtt.o(.bss), (1160 bytes).
    Removing segger_rtt.o(.data), (17 bytes).
    Removing app_error.o(.rev16_text), (4 bytes).
    Removing app_error.o(.revsh_text), (4 bytes).
    Removing app_error.o(i.app_error_handler), (24 bytes).
    Removing app_error.o(i.app_error_save_and_stop), (100 bytes).
    Removing app_error.o(.bss), (32 bytes).
    Removing nrf_assert.o(.rev16_text), (4 bytes).
    Removing nrf_assert.o(.revsh_text), (4 bytes).
    Removing nrf_log.o(.rev16_text), (4 bytes).
    Removing nrf_log.o(.revsh_text), (4 bytes).
    Removing nrf_log.o(i.log_hex), (64 bytes).
    Removing nrf_log.o(i.log_hex_char), (56 bytes).
    Removing nrf_log.o(i.log_uart_init), (76 bytes).
    Removing nrf_log.o(i.log_uart_printf), (20 bytes).
    Removing nrf_log.o(i.log_uart_read_input), (4 bytes).
    Removing nrf_log.o(i.log_uart_write_hex), (52 bytes).
    Removing nrf_log.o(i.log_uart_write_hex_char), (44 bytes).
    Removing nrf_log.o(i.uart_error_cb), (20 bytes).
    Removing nrf_log.o(.bss), (267 bytes).
    Removing nrf_log.o(.constdata), (12 bytes).
    Removing nrf_log.o(.data), (5 bytes).
    Removing retarget.o(.rev16_text), (4 bytes).
    Removing retarget.o(.revsh_text), (4 bytes).
    Removing retarget.o(i.fgetc), (18 bytes).
    Removing retarget.o(.data), (4 bytes).
    Removing app_timer_freertos.o(.rev16_text), (4 bytes).
    Removing app_timer_freertos.o(.revsh_text), (4 bytes).
    Removing app_timer_freertos.o(i.app_timer_callback), (22 bytes).
    Removing app_timer_freertos.o(i.app_timer_create), (92 bytes).
    Removing app_timer_freertos.o(i.app_timer_init), (16 bytes).
    Removing app_timer_freertos.o(i.app_timer_start), (208 bytes).
    Removing app_timer_freertos.o(i.app_timer_stop), (104 bytes).
    Removing app_timer_freertos.o(.data), (4 bytes).
    Removing app_util_platform.o(.rev16_text), (4 bytes).
    Removing app_util_platform.o(.revsh_text), (4 bytes).
    Removing app_util_platform.o(i.critical_region_enter), (16 bytes).
    Removing app_util_platform.o(i.critical_region_exit), (20 bytes).
    Removing app_util_platform.o(.data), (4 bytes).
    Removing app_fifo.o(.rev16_text), (4 bytes).
    Removing app_fifo.o(.revsh_text), (4 bytes).
    Removing app_fifo.o(i.app_fifo_flush), (8 bytes).
    Removing app_fifo.o(i.app_fifo_read), (70 bytes).
    Removing app_fifo.o(i.app_fifo_write), (74 bytes).
    Removing softdevice_handler.o(.rev16_text), (4 bytes).
    Removing softdevice_handler.o(.revsh_text), (4 bytes).
    Removing softdevice_handler.o(i.softdevice_handler_sd_disable), (24 bytes).
    Removing heatshrink_decoder.o(i.get_bits), (116 bytes).
    Removing heatshrink_decoder.o(i.heatshrink_decoder_finish), (28 bytes).
    Removing heatshrink_decoder.o(i.heatshrink_decoder_poll), (296 bytes).
    Removing heatshrink_decoder.o(i.heatshrink_decoder_reset), (34 bytes).
    Removing heatshrink_decoder.o(i.heatshrink_decoder_sink), (68 bytes).
    Removing heatshrink_decoder.o(i.push_byte), (16 bytes).
    Removing heatshrink_decoder.o(i.st_yield_backref), (106 bytes).
    Removing croutine.o(.rev16_text), (4 bytes).
    Removing croutine.o(.revsh_text), (4 bytes).
    Removing event_groups.o(.rev16_text), (4 bytes).
    Removing event_groups.o(.revsh_text), (4 bytes).
    Removing event_groups.o(i.prvTestWaitCondition), (22 bytes).
    Removing event_groups.o(i.ulPortDisableISR), (136 bytes).
    Removing event_groups.o(i.vEventGroupClearBitsCallback), (8 bytes).
    Removing event_groups.o(i.vEventGroupDelete), (42 bytes).
    Removing event_groups.o(i.vEventGroupSetBitsCallback), (8 bytes).
    Removing event_groups.o(i.xEventGroupClearBits), (26 bytes).
    Removing event_groups.o(i.xEventGroupCreate), (26 bytes).
    Removing event_groups.o(i.xEventGroupGetBitsFromISR), (42 bytes).
    Removing event_groups.o(i.xEventGroupSetBits), (102 bytes).
    Removing event_groups.o(i.xEventGroupSync), (130 bytes).
    Removing event_groups.o(i.xEventGroupWaitBits), (160 bytes).
    Removing list.o(.rev16_text), (4 bytes).
    Removing list.o(.revsh_text), (4 bytes).
    Removing queue.o(.rev16_text), (4 bytes).
    Removing queue.o(.revsh_text), (4 bytes).
    Removing queue.o(i.uxQueueMessagesWaiting), (18 bytes).
    Removing queue.o(i.uxQueueMessagesWaitingFromISR), (4 bytes).
    Removing queue.o(i.uxQueueSpacesAvailable), (22 bytes).
    Removing queue.o(i.vQueueDelete), (16 bytes).
    Removing queue.o(i.vQueueUnregisterQueue), (36 bytes).
    Removing queue.o(i.xQueueCreateCountingSemaphore), (20 bytes).
    Removing queue.o(i.xQueueCreateMutex), (68 bytes).
    Removing queue.o(i.xQueueGiveFromISR), (82 bytes).
    Removing queue.o(i.xQueueGiveMutexRecursive), (42 bytes).
    Removing queue.o(i.xQueueIsQueueEmptyFromISR), (14 bytes).
    Removing queue.o(i.xQueueIsQueueFullFromISR), (16 bytes).
    Removing queue.o(i.xQueuePeekFromISR), (46 bytes).
    Removing queue.o(i.xQueueReceiveFromISR), (90 bytes).
    Removing queue.o(i.xQueueTakeMutexRecursive), (50 bytes).
    Removing timers.o(.rev16_text), (4 bytes).
    Removing timers.o(.revsh_text), (4 bytes).
    Removing timers.o(i.pcTimerGetTimerName), (4 bytes).
    Removing timers.o(i.pvTimerGetTimerID), (18 bytes).
    Removing timers.o(i.vTimerSetTimerID), (18 bytes).
    Removing timers.o(i.xTimerGetTimerDaemonTaskHandle), (12 bytes).
    Removing timers.o(i.xTimerIsTimerActive), (28 bytes).
    Removing timers.o(i.xTimerPendFunctionCall), (36 bytes).
    Removing timers.o(i.xTimerPendFunctionCallFromISR), (36 bytes).
    Removing heap_1.o(.rev16_text), (4 bytes).
    Removing heap_1.o(.revsh_text), (4 bytes).
    Removing heap_1.o(i.vPortInitialiseBlocks), (12 bytes).
    Removing heap_1.o(i.xPortGetFreeHeapSize), (20 bytes).
    Removing port_cmsis.o(.rev16_text), (4 bytes).
    Removing port_cmsis.o(.revsh_text), (4 bytes).
    Removing port_cmsis.o(i.vPortEndScheduler), (2 bytes).
    Removing port_cmsis_systick.o(.rev16_text), (4 bytes).
    Removing port_cmsis_systick.o(.revsh_text), (4 bytes).
    Removing port.o(.rev16_text), (4 bytes).
    Removing port.o(.revsh_text), (4 bytes).
    Removing tasks.o(.rev16_text), (4 bytes).
    Removing tasks.o(.revsh_text), (4 bytes).
    Removing tasks.o(i.eTaskGetState), (84 bytes).
    Removing tasks.o(i.pcTaskGetTaskName), (16 bytes).
    Removing tasks.o(i.prvTaskIsTaskSuspended), (36 bytes).
    Removing tasks.o(i.ulPortDisableISR), (76 bytes).
    Removing tasks.o(i.ulTaskNotifyTake), (140 bytes).
    Removing tasks.o(i.uxTaskGetNumberOfTasks), (12 bytes).
    Removing tasks.o(i.uxTaskGetStackHighWaterMark), (36 bytes).
    Removing tasks.o(i.uxTaskPriorityGet), (32 bytes).
    Removing tasks.o(i.uxTaskPriorityGetFromISR), (32 bytes).
    Removing tasks.o(i.uxTaskResetEventItemValue), (24 bytes).
    Removing tasks.o(i.vPortRestoreISR), (32 bytes).
    Removing tasks.o(i.vTaskDelay), (68 bytes).
    Removing tasks.o(i.vTaskDelayUntil), (96 bytes).
    Removing tasks.o(i.vTaskDelete), (132 bytes).
    Removing tasks.o(i.vTaskEndScheduler), (24 bytes).
    Removing tasks.o(i.vTaskNotifyGiveFromISR), (116 bytes).
    Removing tasks.o(i.vTaskPlaceOnUnorderedEventList), (84 bytes).
    Removing tasks.o(i.vTaskPrioritySet), (168 bytes).
    Removing tasks.o(i.vTaskResume), (88 bytes).
    Removing tasks.o(i.vTaskSuspend), (148 bytes).
    Removing tasks.o(i.xTaskGenericNotify), (148 bytes).
    Removing tasks.o(i.xTaskGetCurrentTaskHandle), (12 bytes).
    Removing tasks.o(i.xTaskGetIdleTaskHandle), (12 bytes).
    Removing tasks.o(i.xTaskNotifyFromISR), (164 bytes).
    Removing tasks.o(i.xTaskNotifyWait), (168 bytes).
    Removing tasks.o(i.xTaskRemoveFromUnorderedEventList), (80 bytes).
    Removing tasks.o(i.xTaskResumeFromISR), (104 bytes).
    Removing system_nrf51.o(.rev16_text), (4 bytes).
    Removing system_nrf51.o(.revsh_text), (4 bytes).
    Removing system_nrf51.o(i.SystemCoreClockUpdate), (16 bytes).
    Removing nrf_log.o(i.log_uart_write_string), (20 bytes).
    Removing nrf_log.o(i.log_uart_write_string_many), (32 bytes).
    Removing nrf_log.o(i.log_uart_has_input), (4 bytes).

296 unused section(s) (total 14104 bytes) removed from the image.

==============================================================================

Image Symbol Table

    Local Symbols

    Symbol Name                              Value     Ov Type        Size  Object(Section)

    ../clib/../cmprslib/zerorunl2.c          0x00000000   Number         0  __dczerorl2.o ABSOLUTE
    ../clib/microlib/division.c              0x00000000   Number         0  idiv.o ABSOLUTE
    ../clib/microlib/division.c              0x00000000   Number         0  uidiv.o ABSOLUTE
    ../clib/microlib/division.c              0x00000000   Number         0  uldiv.o ABSOLUTE
    ../clib/microlib/init/entry.s            0x00000000   Number         0  entry9b.o ABSOLUTE
    ../clib/microlib/init/entry.s            0x00000000   Number         0  entry7b.o ABSOLUTE
    ../clib/microlib/init/entry.s            0x00000000   Number         0  entry10b.o ABSOLUTE
    ../clib/microlib/init/entry.s            0x00000000   Number         0  entry11a.o ABSOLUTE
    ../clib/microlib/init/entry.s            0x00000000   Number         0  entry5.o ABSOLUTE
    ../clib/microlib/init/entry.s            0x00000000   Number         0  entry7a.o ABSOLUTE
    ../clib/microlib/init/entry.s            0x00000000   Number         0  entry11b.o ABSOLUTE
    ../clib/microlib/init/entry.s            0x00000000   Number         0  entry.o ABSOLUTE
    ../clib/microlib/init/entry.s            0x00000000   Number         0  entry8a.o ABSOLUTE
    ../clib/microlib/init/entry.s            0x00000000   Number         0  entry8b.o ABSOLUTE
    ../clib/microlib/init/entry.s            0x00000000   Number         0  entry2.o ABSOLUTE
    ../clib/microlib/init/entry.s            0x00000000   Number         0  entry9a.o ABSOLUTE
    ../clib/microlib/init/entry.s            0x00000000   Number         0  entry10a.o ABSOLUTE
    ../clib/microlib/longlong.c              0x00000000   Number         0  llshl.o ABSOLUTE
    ../clib/microlib/longlong.c              0x00000000   Number         0  llushr.o ABSOLUTE
    ../clib/microlib/longlong.c              0x00000000   Number         0  llsshr.o ABSOLUTE
    ../clib/microlib/malloc/malloc.c         0x00000000   Number         0  malloca.o ABSOLUTE
    ../clib/microlib/malloc/malloc.c         0x00000000   Number         0  mallocr.o ABSOLUTE
    ../clib/microlib/malloc/malloc.c         0x00000000   Number         0  malloc.o ABSOLUTE
    ../clib/microlib/malloc/malloc.c         0x00000000   Number         0  mallocra.o ABSOLUTE
    ../clib/microlib/malloc/mvars.c          0x00000000   Number         0  mvars.o ABSOLUTE
    ../clib/microlib/printf/printf.c         0x00000000   Number         0  printf3.o ABSOLUTE
    ../clib/microlib/printf/printf.c         0x00000000   Number         0  printfb.o ABSOLUTE
    ../clib/microlib/printf/printf.c         0x00000000   Number         0  printf0.o ABSOLUTE
    ../clib/microlib/printf/printf.c         0x00000000   Number         0  printfa.o ABSOLUTE
    ../clib/microlib/printf/printf.c         0x00000000   Number         0  printf6.o ABSOLUTE
    ../clib/microlib/printf/printf.c         0x00000000   Number         0  printf1.o ABSOLUTE
    ../clib/microlib/printf/printf.c         0x00000000   Number         0  printf7.o ABSOLUTE
    ../clib/microlib/printf/printf.c         0x00000000   Number         0  printf8.o ABSOLUTE
    ../clib/microlib/printf/printf.c         0x00000000   Number         0  printf5.o ABSOLUTE
    ../clib/microlib/printf/printf.c         0x00000000   Number         0  printf2.o ABSOLUTE
    ../clib/microlib/printf/printf.c         0x00000000   Number         0  printf4.o ABSOLUTE
    ../clib/microlib/printf/stubs.s          0x00000000   Number         0  stubs.o ABSOLUTE
    ../clib/microlib/string/memcmp.c         0x00000000   Number         0  memcmp.o ABSOLUTE
    ../clib/microlib/string/memcpy.c         0x00000000   Number         0  memmovea.o ABSOLUTE
    ../clib/microlib/string/memcpy.c         0x00000000   Number         0  memcpyb.o ABSOLUTE
    ../clib/microlib/string/memcpy.c         0x00000000   Number         0  memmoveb.o ABSOLUTE
    ../clib/microlib/string/memcpy.c         0x00000000   Number         0  memcpya.o ABSOLUTE
    ../clib/microlib/string/memset.c         0x00000000   Number         0  memseta.o ABSOLUTE
    ../clib/microlib/string/strcpy.c         0x00000000   Number         0  strcpy.o ABSOLUTE
    ../clib/microlib/string/strlen.c         0x00000000   Number         0  strlen.o ABSOLUTE
    ../clib/microlib/stubs.s                 0x00000000   Number         0  iusefp.o ABSOLUTE
    ../fplib/microlib/fpadd.c                0x00000000   Number         0  dadd.o ABSOLUTE
    ../fplib/microlib/fpdiv.c                0x00000000   Number         0  ddiv.o ABSOLUTE
    ../fplib/microlib/fpepilogue.c           0x00000000   Number         0  depilogue.o ABSOLUTE
    ../fplib/microlib/fpfix.c                0x00000000   Number         0  dfixul.o ABSOLUTE
    ../fplib/microlib/fpmul.c                0x00000000   Number         0  dmul.o ABSOLUTE
    ..\..\..\..\..\..\components\ble\ble_advertising\ble_advertising.c 0x00000000   Number         0  ble_advertising.o ABSOLUTE
    ..\..\..\..\..\..\components\ble\common\ble_advdata.c 0x00000000   Number         0  ble_advdata.o ABSOLUTE
    ..\..\..\..\..\..\components\ble\common\ble_conn_params.c 0x00000000   Number         0  ble_conn_params.o ABSOLUTE
    ..\..\..\..\..\..\components\ble\common\ble_srv_common.c 0x00000000   Number         0  ble_srv_common.o ABSOLUTE
    ..\..\..\..\..\..\components\ble\device_manager\device_manager_peripheral.c 0x00000000   Number         0  device_manager_peripheral.o ABSOLUTE
    ..\..\..\..\..\..\components\drivers_ext\segger_rtt\RTT_Syscalls_KEIL.c 0x00000000   Number         0  rtt_syscalls_keil.o ABSOLUTE
    ..\..\..\..\..\..\components\drivers_ext\segger_rtt\SEGGER_RTT.c 0x00000000   Number         0  segger_rtt.o ABSOLUTE
    ..\..\..\..\..\..\components\drivers_ext\segger_rtt\SEGGER_RTT_printf.c 0x00000000   Number         0  segger_rtt_printf.o ABSOLUTE
    ..\..\..\..\..\..\components\drivers_nrf\clock\nrf_drv_clock.c 0x00000000   Number         0  nrf_drv_clock.o ABSOLUTE
    ..\..\..\..\..\..\components\drivers_nrf\common\nrf_drv_common.c 0x00000000   Number         0  nrf_drv_common.o ABSOLUTE
    ..\..\..\..\..\..\components\drivers_nrf\delay\nrf_delay.c 0x00000000   Number         0  nrf_delay.o ABSOLUTE
    ..\..\..\..\..\..\components\drivers_nrf\gpiote\nrf_drv_gpiote.c 0x00000000   Number         0  nrf_drv_gpiote.o ABSOLUTE
    ..\..\..\..\..\..\components\drivers_nrf\nrf_soc_nosd\nrf_soc.c 0x00000000   Number         0  nrf_soc.o ABSOLUTE
    ..\..\..\..\..\..\components\drivers_nrf\pstorage\pstorage.c 0x00000000   Number         0  pstorage.o ABSOLUTE
    ..\..\..\..\..\..\components\drivers_nrf\spi_master\nrf_drv_spi.c 0x00000000   Number         0  nrf_drv_spi.o ABSOLUTE
    ..\..\..\..\..\..\components\drivers_nrf\uart\nrf_drv_uart.c 0x00000000   Number         0  nrf_drv_uart.o ABSOLUTE
    ..\..\..\..\..\..\components\libraries\fifo\app_fifo.c 0x00000000   Number         0  app_fifo.o ABSOLUTE
    ..\..\..\..\..\..\components\libraries\timer\app_timer_freertos.c 0x00000000   Number         0  app_timer_freertos.o ABSOLUTE
    ..\..\..\..\..\..\components\libraries\trace\app_trace.c 0x00000000   Number         0  app_trace.o ABSOLUTE
    ..\..\..\..\..\..\components\libraries\uart\app_uart_fifo.c 0x00000000   Number         0  app_uart_fifo.o ABSOLUTE
    ..\..\..\..\..\..\components\libraries\uart\retarget.c 0x00000000   Number         0  retarget.o ABSOLUTE
    ..\..\..\..\..\..\components\libraries\util\app_error.c 0x00000000   Number         0  app_error.o ABSOLUTE
    ..\..\..\..\..\..\components\libraries\util\app_util_platform.c 0x00000000   Number         0  app_util_platform.o ABSOLUTE
    ..\..\..\..\..\..\components\libraries\util\nrf_assert.c 0x00000000   Number         0  nrf_assert.o ABSOLUTE
    ..\..\..\..\..\..\components\libraries\util\nrf_log.c 0x00000000   Number         0  nrf_log.o ABSOLUTE
    ..\..\..\..\..\..\components\softdevice\common\softdevice_handler\softdevice_handler.c 0x00000000   Number         0  softdevice_handler.o ABSOLUTE
    ..\..\..\..\..\..\external\freertos\portable\ARM\nrf51\port.c 0x00000000   Number         0  port.o ABSOLUTE
    ..\..\..\..\..\..\external\freertos\portable\CMSIS\nrf51\port_cmsis.c 0x00000000   Number         0  port_cmsis.o ABSOLUTE
    ..\..\..\..\..\..\external\freertos\portable\CMSIS\nrf51\port_cmsis_systick.c 0x00000000   Number         0  port_cmsis_systick.o ABSOLUTE
    ..\..\..\..\..\..\external\freertos\source\croutine.c 0x00000000   Number         0  croutine.o ABSOLUTE
    ..\..\..\..\..\..\external\freertos\source\event_groups.c 0x00000000   Number         0  event_groups.o ABSOLUTE
    ..\..\..\..\..\..\external\freertos\source\list.c 0x00000000   Number         0  list.o ABSOLUTE
    ..\..\..\..\..\..\external\freertos\source\portable\MemMang\heap_1.c 0x00000000   Number         0  heap_1.o ABSOLUTE
    ..\..\..\..\..\..\external\freertos\source\queue.c 0x00000000   Number         0  queue.o ABSOLUTE
    ..\..\..\..\..\..\external\freertos\source\tasks.c 0x00000000   Number         0  tasks.o ABSOLUTE
    ..\..\..\..\..\..\external\freertos\source\timers.c 0x00000000   Number         0  timers.o ABSOLUTE
    ..\..\..\heatshrink\heatshrink_decoder.c 0x00000000   Number         0  heatshrink_decoder.o ABSOLUTE
    ..\..\..\heatshrink\heatshrink_encoder.c 0x00000000   Number         0  heatshrink_encoder.o ABSOLUTE
    ..\..\..\main.c                          0x00000000   Number         0  main.o ABSOLUTE
    ..\\..\\..\\..\\..\\..\\components\\ble\\ble_advertising\\ble_advertising.c 0x00000000   Number         0  ble_advertising.o ABSOLUTE
    ..\\..\\..\\..\\..\\..\\components\\ble\\common\\ble_advdata.c 0x00000000   Number         0  ble_advdata.o ABSOLUTE
    ..\\..\\..\\..\\..\\..\\components\\ble\\common\\ble_conn_params.c 0x00000000   Number         0  ble_conn_params.o ABSOLUTE
    ..\\..\\..\\..\\..\\..\\components\\ble\\common\\ble_srv_common.c 0x00000000   Number         0  ble_srv_common.o ABSOLUTE
    ..\\..\\..\\..\\..\\..\\components\\ble\\device_manager\\device_manager_peripheral.c 0x00000000   Number         0  device_manager_peripheral.o ABSOLUTE
    ..\\..\\..\\..\\..\\..\\components\\drivers_nrf\\clock\\nrf_drv_clock.c 0x00000000   Number         0  nrf_drv_clock.o ABSOLUTE
    ..\\..\\..\\..\\..\\..\\components\\drivers_nrf\\common\\nrf_drv_common.c 0x00000000   Number         0  nrf_drv_common.o ABSOLUTE
    ..\\..\\..\\..\\..\\..\\components\\drivers_nrf\\delay\\nrf_delay.c 0x00000000   Number         0  nrf_delay.o ABSOLUTE
    ..\\..\\..\\..\\..\\..\\components\\drivers_nrf\\gpiote\\nrf_drv_gpiote.c 0x00000000   Number         0  nrf_drv_gpiote.o ABSOLUTE
    ..\\..\\..\\..\\..\\..\\components\\drivers_nrf\\nrf_soc_nosd\\nrf_soc.c 0x00000000   Number         0  nrf_soc.o ABSOLUTE
    ..\\..\\..\\..\\..\\..\\components\\drivers_nrf\\pstorage\\pstorage.c 0x00000000   Number         0  pstorage.o ABSOLUTE
    ..\\..\\..\\..\\..\\..\\components\\drivers_nrf\\spi_master\\nrf_drv_spi.c 0x00000000   Number         0  nrf_drv_spi.o ABSOLUTE
    ..\\..\\..\\..\\..\\..\\components\\drivers_nrf\\uart\\nrf_drv_uart.c 0x00000000   Number         0  nrf_drv_uart.o ABSOLUTE
    ..\\..\\..\\..\\..\\..\\components\\libraries\\fifo\\app_fifo.c 0x00000000   Number         0  app_fifo.o ABSOLUTE
    ..\\..\\..\\..\\..\\..\\components\\libraries\\timer\\app_timer_freertos.c 0x00000000   Number         0  app_timer_freertos.o ABSOLUTE
    ..\\..\\..\\..\\..\\..\\components\\libraries\\uart\\app_uart_fifo.c 0x00000000   Number         0  app_uart_fifo.o ABSOLUTE
    ..\\..\\..\\..\\..\\..\\components\\libraries\\uart\\retarget.c 0x00000000   Number         0  retarget.o ABSOLUTE
    ..\\..\\..\\..\\..\\..\\components\\libraries\\util\\app_error.c 0x00000000   Number         0  app_error.o ABSOLUTE
    ..\\..\\..\\..\\..\\..\\components\\libraries\\util\\app_util_platform.c 0x00000000   Number         0  app_util_platform.o ABSOLUTE
    ..\\..\\..\\..\\..\\..\\components\\libraries\\util\\nrf_assert.c 0x00000000   Number         0  nrf_assert.o ABSOLUTE
    ..\\..\\..\\..\\..\\..\\components\\libraries\\util\\nrf_log.c 0x00000000   Number         0  nrf_log.o ABSOLUTE
    ..\\..\\..\\..\\..\\..\\components\\softdevice\\common\\softdevice_handler\\softdevice_handler.c 0x00000000   Number         0  softdevice_handler.o ABSOLUTE
    ..\\..\\..\\..\\..\\..\\external\\freertos\\portable\\ARM\\nrf51\\port.c 0x00000000   Number         0  port.o ABSOLUTE
    ..\\..\\..\\..\\..\\..\\external\\freertos\\portable\\CMSIS\\nrf51\\port_cmsis.c 0x00000000   Number         0  port_cmsis.o ABSOLUTE
    ..\\..\\..\\..\\..\\..\\external\\freertos\\portable\\CMSIS\\nrf51\\port_cmsis_systick.c 0x00000000   Number         0  port_cmsis_systick.o ABSOLUTE
    ..\\..\\..\\..\\..\\..\\external\\freertos\\source\\croutine.c 0x00000000   Number         0  croutine.o ABSOLUTE
    ..\\..\\..\\..\\..\\..\\external\\freertos\\source\\event_groups.c 0x00000000   Number         0  event_groups.o ABSOLUTE
    ..\\..\\..\\..\\..\\..\\external\\freertos\\source\\list.c 0x00000000   Number         0  list.o ABSOLUTE
    ..\\..\\..\\..\\..\\..\\external\\freertos\\source\\portable\\MemMang\\heap_1.c 0x00000000   Number         0  heap_1.o ABSOLUTE
    ..\\..\\..\\..\\..\\..\\external\\freertos\\source\\queue.c 0x00000000   Number         0  queue.o ABSOLUTE
    ..\\..\\..\\..\\..\\..\\external\\freertos\\source\\tasks.c 0x00000000   Number         0  tasks.o ABSOLUTE
    ..\\..\\..\\..\\..\\..\\external\\freertos\\source\\timers.c 0x00000000   Number         0  timers.o ABSOLUTE
    ..\\..\\..\\main.c                       0x00000000   Number         0  main.o ABSOLUTE
    RTE\Device\nRF51422_xxAC\arm_startup_nrf51.s 0x00000000   Number         0  arm_startup_nrf51.o ABSOLUTE
    RTE\Device\nRF51422_xxAC\system_nrf51.c  0x00000000   Number         0  system_nrf51.o ABSOLUTE
    RTE\\Device\\nRF51422_xxAC\\system_nrf51.c 0x00000000   Number         0  system_nrf51.o ABSOLUTE
    cdrcmple.s                               0x00000000   Number         0  cdrcmple.o ABSOLUTE
    dc.s                                     0x00000000   Number         0  dc.o ABSOLUTE
    handlers.s                               0x00000000   Number         0  handlers.o ABSOLUTE
    init.s                                   0x00000000   Number         0  init.o ABSOLUTE
    RESET                                    0x0001b000   Section      192  arm_startup_nrf51.o(RESET)
    .ARM.Collect$$$$00000000                 0x0001b0c0   Section        0  entry.o(.ARM.Collect$$$$00000000)
    .ARM.Collect$$$$00000001                 0x0001b0c0   Section        4  entry2.o(.ARM.Collect$$$$00000001)
    .ARM.Collect$$$$00000004                 0x0001b0c4   Section        4  entry5.o(.ARM.Collect$$$$00000004)
    .ARM.Collect$$$$00000008                 0x0001b0c8   Section        0  entry7b.o(.ARM.Collect$$$$00000008)
    .ARM.Collect$$$$0000000A                 0x0001b0c8   Section        0  entry8b.o(.ARM.Collect$$$$0000000A)
    .ARM.Collect$$$$0000000B                 0x0001b0c8   Section        8  entry9a.o(.ARM.Collect$$$$0000000B)
    .ARM.Collect$$$$0000000D                 0x0001b0d0   Section        0  entry10a.o(.ARM.Collect$$$$0000000D)
    .ARM.Collect$$$$0000000F                 0x0001b0d0   Section        0  entry11a.o(.ARM.Collect$$$$0000000F)
    .ARM.Collect$$$$00002712                 0x0001b0d0   Section        4  entry2.o(.ARM.Collect$$$$00002712)
    __lit__00000000                          0x0001b0d0   Data           4  entry2.o(.ARM.Collect$$$$00002712)
    .emb_text                                0x0001b0d4   Section       30  nrf_delay.o(.emb_text)
    .emb_text                                0x0001b0f4   Section      108  port.o(.emb_text)
    .text                                    0x0001b160   Section       56  arm_startup_nrf51.o(.text)
    .text                                    0x0001b198   Section        0  uidiv.o(.text)
    .text                                    0x0001b1c4   Section        0  idiv.o(.text)
    .text                                    0x0001b1ec   Section        0  memmovea.o(.text)
    .text                                    0x0001b22c   Section        0  memseta.o(.text)
    .text                                    0x0001b250   Section        0  strlen.o(.text)
    .text                                    0x0001b25e   Section        0  memcmp.o(.text)
    .text                                    0x0001b278   Section        0  uldiv.o(.text)
    .text                                    0x0001b2d8   Section        0  iusefp.o(.text)
    .text                                    0x0001b2d8   Section        0  dadd.o(.text)
    .text                                    0x0001b43c   Section        0  dmul.o(.text)
    .text                                    0x0001b50c   Section        0  ddiv.o(.text)
    .text                                    0x0001b5fc   Section        0  dfixul.o(.text)
    .text                                    0x0001b63c   Section       40  cdrcmple.o(.text)
    .text                                    0x0001b664   Section       36  init.o(.text)
    .text                                    0x0001b688   Section        0  llshl.o(.text)
    .text                                    0x0001b6a8   Section        0  llushr.o(.text)
    .text                                    0x0001b6ca   Section        0  llsshr.o(.text)
    .text                                    0x0001b6f0   Section        0  depilogue.o(.text)
    .text                                    0x0001b7ae   Section        0  __dczerorl2.o(.text)
    i.GPIOTE_IRQHandler                      0x0001b804   Section        0  nrf_drv_gpiote.o(i.GPIOTE_IRQHandler)
    i.RTC1_IRQHandler                        0x0001b90c   Section        0  port_cmsis_systick.o(i.RTC1_IRQHandler)
    i.SPI0_TWI0_IRQHandler                   0x0001b9b8   Section        0  nrf_drv_spi.o(i.SPI0_TWI0_IRQHandler)
    i.SWI2_IRQHandler                        0x0001b9f0   Section        0  softdevice_handler.o(i.SWI2_IRQHandler)
    i.SystemInit                             0x0001ba10   Section        0  system_nrf51.o(i.SystemInit)
    i.UART0_IRQHandler                       0x0001ba64   Section        0  nrf_drv_uart.o(i.UART0_IRQHandler)
    i.__0printf                              0x0001ba6c   Section        0  printfa.o(i.__0printf)
    i.__ARM_clz                              0x0001ba8c   Section        0  depilogue.o(i.__ARM_clz)
    i.__ARM_common_switch8                   0x0001baba   Section        0  ble_srv_common.o(i.__ARM_common_switch8)
    i.__scatterload_copy                     0x0001bad4   Section       14  handlers.o(i.__scatterload_copy)
    i.__scatterload_null                     0x0001bae2   Section        2  handlers.o(i.__scatterload_null)
    i.__scatterload_zeroinit                 0x0001bae4   Section       14  handlers.o(i.__scatterload_zeroinit)
    i._fp_digits                             0x0001baf4   Section        0  printfa.o(i._fp_digits)
    _fp_digits                               0x0001baf5   Thumb Code   316  printfa.o(i._fp_digits)
    i._printf_core                           0x0001bc4c   Section        0  printfa.o(i._printf_core)
    _printf_core                             0x0001bc4d   Thumb Code  1754  printfa.o(i._printf_core)
    i._printf_post_padding                   0x0001c338   Section        0  printfa.o(i._printf_post_padding)
    _printf_post_padding                     0x0001c339   Thumb Code    32  printfa.o(i._printf_post_padding)
    i._printf_pre_padding                    0x0001c358   Section        0  printfa.o(i._printf_pre_padding)
    _printf_pre_padding                      0x0001c359   Thumb Code    44  printfa.o(i._printf_pre_padding)
    i.add_tag_bit                            0x0001c384   Section        0  heatshrink_encoder.o(i.add_tag_bit)
    add_tag_bit                              0x0001c385   Thumb Code    12  heatshrink_encoder.o(i.add_tag_bit)
    i.adv_data_encode                        0x0001c390   Section        0  ble_advdata.o(i.adv_data_encode)
    i.app_error_fault_handler                0x0001c5a8   Section        0  app_error.o(i.app_error_fault_handler)
    i.app_error_handler_bare                 0x0001c5c4   Section        0  app_error.o(i.app_error_handler_bare)
    i.app_evt_notify                         0x0001c5dc   Section        0  device_manager_peripheral.o(i.app_evt_notify)
    app_evt_notify                           0x0001c5dd   Thumb Code     6  device_manager_peripheral.o(i.app_evt_notify)
    i.app_fifo_get                           0x0001c5e8   Section        0  app_fifo.o(i.app_fifo_get)
    i.app_fifo_init                          0x0001c5fe   Section        0  app_fifo.o(i.app_fifo_init)
    i.app_fifo_put                           0x0001c622   Section        0  app_fifo.o(i.app_fifo_put)
    i.app_notify                             0x0001c63c   Section        0  pstorage.o(i.app_notify)
    app_notify                               0x0001c63d   Thumb Code    34  pstorage.o(i.app_notify)
    i.app_notify_error_state_transit         0x0001c668   Section        0  pstorage.o(i.app_notify_error_state_transit)
    app_notify_error_state_transit           0x0001c669   Thumb Code    26  pstorage.o(i.app_notify_error_state_transit)
    i.app_uart_get                           0x0001c688   Section        0  app_uart_fifo.o(i.app_uart_get)
    i.app_uart_init                          0x0001c6bc   Section        0  app_uart_fifo.o(i.app_uart_init)
    i.app_uart_put                           0x0001c75c   Section        0  app_uart_fifo.o(i.app_uart_put)
    i.ble_advdata_set                        0x0001c784   Section        0  ble_advdata.o(i.ble_advdata_set)
    i.ble_advertising_init                   0x0001c7ec   Section        0  ble_advertising.o(i.ble_advertising_init)
    i.ble_advertising_on_ble_evt             0x0001c910   Section        0  ble_advertising.o(i.ble_advertising_on_ble_evt)
    i.ble_advertising_on_sys_evt             0x0001c98c   Section        0  ble_advertising.o(i.ble_advertising_on_sys_evt)
    i.ble_advertising_peer_address_clear     0x0001c9bc   Section        0  ble_advertising.o(i.ble_advertising_peer_address_clear)
    ble_advertising_peer_address_clear       0x0001c9bd   Thumb Code    12  ble_advertising.o(i.ble_advertising_peer_address_clear)
    i.ble_advertising_start                  0x0001c9cc   Section        0  ble_advertising.o(i.ble_advertising_start)
    i.ble_device_addr_encode                 0x0001cbac   Section        0  ble_advdata.o(i.ble_device_addr_encode)
    ble_device_addr_encode                   0x0001cbad   Thumb Code    94  ble_advdata.o(i.ble_device_addr_encode)
    i.ble_evt_dispatch                       0x0001cc0a   Section        0  main.o(i.ble_evt_dispatch)
    ble_evt_dispatch                         0x0001cc0b   Thumb Code    22  main.o(i.ble_evt_dispatch)
    i.ble_multi_data_send                    0x0001cc20   Section        0  main.o(i.ble_multi_data_send)
    i.ble_stack_init                         0x0001cc6c   Section        0  main.o(i.ble_stack_init)
    ble_stack_init                           0x0001cc6d   Thumb Code   102  main.o(i.ble_stack_init)
    i.bond_data_load                         0x0001cce4   Section        0  device_manager_peripheral.o(i.bond_data_load)
    i.buffers_init                           0x0001cd2c   Section        0  main.o(i.buffers_init)
    i.can_take_byte                          0x0001cdf0   Section        0  heatshrink_encoder.o(i.can_take_byte)
    can_take_byte                            0x0001cdf1   Thumb Code    18  heatshrink_encoder.o(i.can_take_byte)
    i.channel_port_get                       0x0001ce04   Section        0  nrf_drv_gpiote.o(i.channel_port_get)
    channel_port_get                         0x0001ce05   Thumb Code    10  nrf_drv_gpiote.o(i.channel_port_get)
    i.clear_operation_execute                0x0001ce14   Section        0  pstorage.o(i.clear_operation_execute)
    clear_operation_execute                  0x0001ce15   Thumb Code   252  pstorage.o(i.clear_operation_execute)
    i.clear_post_processing_run              0x0001cf18   Section        0  pstorage.o(i.clear_post_processing_run)
    clear_post_processing_run                0x0001cf19   Thumb Code    32  pstorage.o(i.clear_post_processing_run)
    i.cmd_process                            0x0001cf3c   Section        0  pstorage.o(i.cmd_process)
    cmd_process                              0x0001cf3d   Thumb Code    46  pstorage.o(i.cmd_process)
    i.cmd_queue_element_init                 0x0001cf74   Section        0  pstorage.o(i.cmd_queue_element_init)
    cmd_queue_element_init                   0x0001cf75   Thumb Code    26  pstorage.o(i.cmd_queue_element_init)
    i.cmd_queue_enqueue                      0x0001cf94   Section        0  pstorage.o(i.cmd_queue_enqueue)
    cmd_queue_enqueue                        0x0001cf95   Thumb Code    68  pstorage.o(i.cmd_queue_enqueue)
    i.command_end_procedure_run              0x0001cfe0   Section        0  pstorage.o(i.command_end_procedure_run)
    command_end_procedure_run                0x0001cfe1   Thumb Code    56  pstorage.o(i.command_end_procedure_run)
    i.compress                               0x0001d01c   Section        0  main.o(i.compress)
    i.compress_task                          0x0001d0d8   Section        0  main.o(i.compress_task)
    compress_task                            0x0001d0d9   Thumb Code    96  main.o(i.compress_task)
    i.conn_int_encode                        0x0001d13c   Section        0  ble_advdata.o(i.conn_int_encode)
    conn_int_encode                          0x0001d13d   Thumb Code   130  ble_advdata.o(i.conn_int_encode)
    i.connection_instance_find               0x0001d1c4   Section        0  device_manager_peripheral.o(i.connection_instance_find)
    connection_instance_find                 0x0001d1c5   Thumb Code    38  device_manager_peripheral.o(i.connection_instance_find)
    i.connection_instance_init               0x0001d1f4   Section        0  device_manager_peripheral.o(i.connection_instance_init)
    connection_instance_init                 0x0001d1f5   Thumb Code    30  device_manager_peripheral.o(i.connection_instance_init)
    i.current_int_priority_get               0x0001d218   Section        0  port_cmsis.o(i.current_int_priority_get)
    current_int_priority_get                 0x0001d219   Thumb Code    60  port_cmsis.o(i.current_int_priority_get)
    i.current_int_priority_get               0x0001d25c   Section        0  port_cmsis_systick.o(i.current_int_priority_get)
    current_int_priority_get                 0x0001d25d   Thumb Code    60  port_cmsis_systick.o(i.current_int_priority_get)
    i.current_int_priority_get               0x0001d2a0   Section        0  tasks.o(i.current_int_priority_get)
    current_int_priority_get                 0x0001d2a1   Thumb Code    60  tasks.o(i.current_int_priority_get)
    i.data_page_erase_state_run              0x0001d2e4   Section        0  pstorage.o(i.data_page_erase_state_run)
    data_page_erase_state_run                0x0001d2e5   Thumb Code    80  pstorage.o(i.data_page_erase_state_run)
    i.data_send                              0x0001d338   Section        0  main.o(i.data_send)
    data_send                                0x0001d339   Thumb Code   106  main.o(i.data_send)
    i.data_to_swap_write_state_run           0x0001d3ac   Section        0  pstorage.o(i.data_to_swap_write_state_run)
    data_to_swap_write_state_run             0x0001d3ad   Thumb Code    34  pstorage.o(i.data_to_swap_write_state_run)
    i.device_context_store                   0x0001d3d4   Section        0  device_manager_peripheral.o(i.device_context_store)
    device_context_store                     0x0001d3d5   Thumb Code   152  device_manager_peripheral.o(i.device_context_store)
    i.device_instance_allocate               0x0001d484   Section        0  device_manager_peripheral.o(i.device_instance_allocate)
    device_instance_allocate                 0x0001d485   Thumb Code    74  device_manager_peripheral.o(i.device_instance_allocate)
    i.device_instance_find                   0x0001d4d8   Section        0  device_manager_peripheral.o(i.device_instance_find)
    device_instance_find                     0x0001d4d9   Thumb Code    68  device_manager_peripheral.o(i.device_instance_find)
    i.device_instance_free                   0x0001d520   Section        0  device_manager_peripheral.o(i.device_instance_free)
    device_instance_free                     0x0001d521   Thumb Code    40  device_manager_peripheral.o(i.device_instance_free)
    i.device_manager_evt_handler             0x0001d54c   Section        0  main.o(i.device_manager_evt_handler)
    device_manager_evt_handler               0x0001d54d   Thumb Code    30  main.o(i.device_manager_evt_handler)
    i.device_manager_init                    0x0001d570   Section        0  main.o(i.device_manager_init)
    device_manager_init                      0x0001d571   Thumb Code    84  main.o(i.device_manager_init)
    i.dm_ble_evt_handler                     0x0001d5cc   Section        0  device_manager_peripheral.o(i.dm_ble_evt_handler)
    i.dm_handle_initialize                   0x0001d9a4   Section        0  device_manager_peripheral.o(i.dm_handle_initialize)
    i.dm_init                                0x0001d9c0   Section        0  device_manager_peripheral.o(i.dm_init)
    i.dm_pstorage_cb_handler                 0x0001da80   Section        0  device_manager_peripheral.o(i.dm_pstorage_cb_handler)
    dm_pstorage_cb_handler                   0x0001da81   Thumb Code   344  device_manager_peripheral.o(i.dm_pstorage_cb_handler)
    i.dm_register                            0x0001dbe0   Section        0  device_manager_peripheral.o(i.dm_register)
    i.eTaskConfirmSleepModeStatus            0x0001dc54   Section        0  tasks.o(i.eTaskConfirmSleepModeStatus)
    i.fifo_get                               0x0001dc74   Section        0  app_fifo.o(i.fifo_get)
    fifo_get                                 0x0001dc75   Thumb Code    20  app_fifo.o(i.fifo_get)
    i.fifo_put                               0x0001dc88   Section        0  app_fifo.o(i.fifo_put)
    fifo_put                                 0x0001dc89   Thumb Code    18  app_fifo.o(i.fifo_put)
    i.find_longest_match                     0x0001dc9c   Section        0  heatshrink_encoder.o(i.find_longest_match)
    find_longest_match                       0x0001dc9d   Thumb Code   128  heatshrink_encoder.o(i.find_longest_match)
    i.flash_api_err_code_process             0x0001dd24   Section        0  pstorage.o(i.flash_api_err_code_process)
    flash_api_err_code_process               0x0001dd25   Thumb Code    28  pstorage.o(i.flash_api_err_code_process)
    i.flash_operation_success_run            0x0001dd44   Section        0  pstorage.o(i.flash_operation_success_run)
    flash_operation_success_run              0x0001dd45   Thumb Code   114  pstorage.o(i.flash_operation_success_run)
    i.flash_page_erase                       0x0001ddc4   Section        0  pstorage.o(i.flash_page_erase)
    flash_page_erase                         0x0001ddc5   Thumb Code    10  pstorage.o(i.flash_page_erase)
    i.flash_write                            0x0001ddce   Section        0  pstorage.o(i.flash_write)
    flash_write                              0x0001ddcf   Thumb Code    10  pstorage.o(i.flash_write)
    i.fputc                                  0x0001ddd8   Section        0  retarget.o(i.fputc)
    i.gattc_context_apply                    0x0001dde6   Section        0  device_manager_peripheral.o(i.gattc_context_apply)
    gattc_context_apply                      0x0001dde7   Thumb Code     4  device_manager_peripheral.o(i.gattc_context_apply)
    i.gattc_context_load                     0x0001ddea   Section        0  device_manager_peripheral.o(i.gattc_context_load)
    gattc_context_load                       0x0001ddeb   Thumb Code     4  device_manager_peripheral.o(i.gattc_context_load)
    i.gattc_context_store                    0x0001ddee   Section        0  device_manager_peripheral.o(i.gattc_context_store)
    gattc_context_store                      0x0001ddef   Thumb Code     4  device_manager_peripheral.o(i.gattc_context_store)
    i.gatts_context_apply                    0x0001ddf4   Section        0  device_manager_peripheral.o(i.gatts_context_apply)
    gatts_context_apply                      0x0001ddf5   Thumb Code   160  device_manager_peripheral.o(i.gatts_context_apply)
    i.gatts_context_load                     0x0001dea4   Section        0  device_manager_peripheral.o(i.gatts_context_load)
    gatts_context_load                       0x0001dea5   Thumb Code    44  device_manager_peripheral.o(i.gatts_context_load)
    i.gatts_context_store                    0x0001ded4   Section        0  device_manager_peripheral.o(i.gatts_context_store)
    gatts_context_store                      0x0001ded5   Thumb Code   158  device_manager_peripheral.o(i.gatts_context_store)
    i.gattsc_context_apply                   0x0001df80   Section        0  device_manager_peripheral.o(i.gattsc_context_apply)
    gattsc_context_apply                     0x0001df81   Thumb Code     8  device_manager_peripheral.o(i.gattsc_context_apply)
    i.gattsc_context_load                    0x0001df88   Section        0  device_manager_peripheral.o(i.gattsc_context_load)
    gattsc_context_load                      0x0001df89   Thumb Code     8  device_manager_peripheral.o(i.gattsc_context_load)
    i.gattsc_context_store                   0x0001df90   Section        0  device_manager_peripheral.o(i.gattsc_context_store)
    gattsc_context_store                     0x0001df91   Thumb Code     8  device_manager_peripheral.o(i.gattsc_context_store)
    i.head_restore_state_run                 0x0001df98   Section        0  pstorage.o(i.head_restore_state_run)
    head_restore_state_run                   0x0001df99   Thumb Code   110  pstorage.o(i.head_restore_state_run)
    i.heatshrink_encoder_finish              0x0001e010   Section        0  heatshrink_encoder.o(i.heatshrink_encoder_finish)
    i.heatshrink_encoder_poll                0x0001e038   Section        0  heatshrink_encoder.o(i.heatshrink_encoder_poll)
    i.heatshrink_encoder_reset               0x0001e1fc   Section        0  heatshrink_encoder.o(i.heatshrink_encoder_reset)
    i.heatshrink_encoder_sink                0x0001e228   Section        0  heatshrink_encoder.o(i.heatshrink_encoder_sink)
    i.intan_setup                            0x0001e28c   Section        0  main.o(i.intan_setup)
    i.intern_softdevice_events_execute       0x0001e354   Section        0  softdevice_handler.o(i.intern_softdevice_events_execute)
    i.is_manual_peripheral_setup_needed      0x0001e3c8   Section        0  system_nrf51.o(i.is_manual_peripheral_setup_needed)
    is_manual_peripheral_setup_needed        0x0001e3c9   Thumb Code    66  system_nrf51.o(i.is_manual_peripheral_setup_needed)
    i.is_page_erase_required                 0x0001e410   Section        0  pstorage.o(i.is_page_erase_required)
    is_page_erase_required                   0x0001e411   Thumb Code    60  pstorage.o(i.is_page_erase_required)
    i.is_word_aligned                        0x0001e454   Section        0  pstorage.o(i.is_word_aligned)
    is_word_aligned                          0x0001e455   Thumb Code    12  pstorage.o(i.is_word_aligned)
    i.le_role_encode                         0x0001e460   Section        0  ble_advdata.o(i.le_role_encode)
    le_role_encode                           0x0001e461   Thumb Code    84  ble_advdata.o(i.le_role_encode)
    i.main                                   0x0001e4b4   Section        0  main.o(i.main)
    i.main_state_err_busy_process            0x0001e7c4   Section        0  pstorage.o(i.main_state_err_busy_process)
    main_state_err_busy_process              0x0001e7c5   Thumb Code    20  pstorage.o(i.main_state_err_busy_process)
    i.malloc                                 0x0001e7dc   Section        0  malloc.o(i.malloc)
    i.manuf_specific_data_encode             0x0001e848   Section        0  ble_advdata.o(i.manuf_specific_data_encode)
    manuf_specific_data_encode               0x0001e849   Thumb Code   104  ble_advdata.o(i.manuf_specific_data_encode)
    i.name_encode                            0x0001e8b0   Section        0  ble_advdata.o(i.name_encode)
    name_encode                              0x0001e8b1   Thumb Code   158  ble_advdata.o(i.name_encode)
    i.no_service_context_apply               0x0001e94e   Section        0  device_manager_peripheral.o(i.no_service_context_apply)
    no_service_context_apply                 0x0001e94f   Thumb Code     4  device_manager_peripheral.o(i.no_service_context_apply)
    i.no_service_context_load                0x0001e952   Section        0  device_manager_peripheral.o(i.no_service_context_load)
    no_service_context_load                  0x0001e953   Thumb Code     4  device_manager_peripheral.o(i.no_service_context_load)
    i.no_service_context_store               0x0001e956   Section        0  device_manager_peripheral.o(i.no_service_context_store)
    no_service_context_store                 0x0001e957   Thumb Code     4  device_manager_peripheral.o(i.no_service_context_store)
    i.nrf_delay_ms                           0x0001e95c   Section        0  nrf_delay.o(i.nrf_delay_ms)
    i.nrf_drv_clock_lfclk_request            0x0001e978   Section        0  nrf_drv_clock.o(i.nrf_drv_clock_lfclk_request)
    i.nrf_drv_clock_on_soc_event             0x0001e984   Section        0  nrf_drv_clock.o(i.nrf_drv_clock_on_soc_event)
    i.nrf_drv_common_irq_enable              0x0001e9a8   Section        0  nrf_drv_common.o(i.nrf_drv_common_irq_enable)
    i.nrf_drv_spi_init                       0x0001ea08   Section        0  nrf_drv_spi.o(i.nrf_drv_spi_init)
    i.nrf_drv_spi_transfer                   0x0001eb28   Section        0  nrf_drv_spi.o(i.nrf_drv_spi_transfer)
    i.nrf_drv_spi_uninit                     0x0001eb40   Section        0  nrf_drv_spi.o(i.nrf_drv_spi_uninit)
    i.nrf_drv_spi_xfer                       0x0001eb88   Section        0  nrf_drv_spi.o(i.nrf_drv_spi_xfer)
    i.nrf_drv_uart_init                      0x0001ebf4   Section        0  nrf_drv_uart.o(i.nrf_drv_uart_init)
    i.nrf_drv_uart_rx                        0x0001ecbc   Section        0  nrf_drv_uart.o(i.nrf_drv_uart_rx)
    i.nrf_drv_uart_rx_enable                 0x0001ed08   Section        0  nrf_drv_uart.o(i.nrf_drv_uart_rx_enable)
    i.nrf_drv_uart_rx_for_uart               0x0001ed20   Section        0  nrf_drv_uart.o(i.nrf_drv_uart_rx_for_uart)
    nrf_drv_uart_rx_for_uart                 0x0001ed21   Thumb Code   144  nrf_drv_uart.o(i.nrf_drv_uart_rx_for_uart)
    i.nrf_drv_uart_tx                        0x0001edbc   Section        0  nrf_drv_uart.o(i.nrf_drv_uart_tx)
    i.nrf_drv_uart_tx_for_uart               0x0001eddc   Section        0  nrf_drv_uart.o(i.nrf_drv_uart_tx_for_uart)
    nrf_drv_uart_tx_for_uart                 0x0001eddd   Thumb Code   108  nrf_drv_uart.o(i.nrf_drv_uart_tx_for_uart)
    i.nrf_gpio_cfg                           0x0001ee50   Section        0  nrf_drv_uart.o(i.nrf_gpio_cfg)
    nrf_gpio_cfg                             0x0001ee51   Thumb Code    32  nrf_drv_uart.o(i.nrf_gpio_cfg)
    i.nrf_gpio_cfg                           0x0001ee74   Section        0  nrf_drv_spi.o(i.nrf_gpio_cfg)
    nrf_gpio_cfg                             0x0001ee75   Thumb Code    32  nrf_drv_spi.o(i.nrf_gpio_cfg)
    i.nrf_gpio_cfg_input                     0x0001ee98   Section        0  nrf_drv_uart.o(i.nrf_gpio_cfg_input)
    nrf_gpio_cfg_input                       0x0001ee99   Thumb Code    18  nrf_drv_uart.o(i.nrf_gpio_cfg_input)
    i.nrf_gpio_cfg_output                    0x0001eeaa   Section        0  nrf_drv_uart.o(i.nrf_gpio_cfg_output)
    nrf_gpio_cfg_output                      0x0001eeab   Thumb Code    20  nrf_drv_uart.o(i.nrf_gpio_cfg_output)
    i.nrf_gpio_cfg_output                    0x0001eebe   Section        0  nrf_drv_spi.o(i.nrf_gpio_cfg_output)
    nrf_gpio_cfg_output                      0x0001eebf   Thumb Code    20  nrf_drv_spi.o(i.nrf_gpio_cfg_output)
    i.nrf_gpio_cfg_sense_set                 0x0001eed4   Section        0  nrf_drv_gpiote.o(i.nrf_gpio_cfg_sense_set)
    nrf_gpio_cfg_sense_set                   0x0001eed5   Thumb Code    26  nrf_drv_gpiote.o(i.nrf_gpio_cfg_sense_set)
    i.nrf_gpio_pin_set                       0x0001eef4   Section        0  nrf_drv_spi.o(i.nrf_gpio_pin_set)
    nrf_gpio_pin_set                         0x0001eef5   Thumb Code    10  nrf_drv_spi.o(i.nrf_gpio_pin_set)
    i.nrf_gpiote_event_is_set                0x0001ef04   Section        0  nrf_drv_gpiote.o(i.nrf_gpiote_event_is_set)
    nrf_gpiote_event_is_set                  0x0001ef05   Thumb Code    14  nrf_drv_gpiote.o(i.nrf_gpiote_event_is_set)
    i.nrf_uart_event_check                   0x0001ef18   Section        0  nrf_drv_uart.o(i.nrf_uart_event_check)
    nrf_uart_event_check                     0x0001ef19   Thumb Code    10  nrf_drv_uart.o(i.nrf_uart_event_check)
    i.nrf_uart_int_enable_check              0x0001ef22   Section        0  nrf_drv_uart.o(i.nrf_uart_int_enable_check)
    nrf_uart_int_enable_check                0x0001ef23   Thumb Code    16  nrf_drv_uart.o(i.nrf_uart_int_enable_check)
    i.on_adv_evt                             0x0001ef32   Section        0  main.o(i.on_adv_evt)
    on_adv_evt                               0x0001ef33   Thumb Code    18  main.o(i.on_adv_evt)
    i.on_ble_evt                             0x0001ef44   Section        0  main.o(i.on_ble_evt)
    on_ble_evt                               0x0001ef45   Thumb Code   182  main.o(i.on_ble_evt)
    i.peer_address_exists                    0x0001f044   Section        0  ble_advertising.o(i.peer_address_exists)
    peer_address_exists                      0x0001f045   Thumb Code    22  ble_advertising.o(i.peer_address_exists)
    i.peer_instance_init                     0x0001f05c   Section        0  device_manager_peripheral.o(i.peer_instance_init)
    peer_instance_init                       0x0001f05d   Thumb Code    50  device_manager_peripheral.o(i.peer_instance_init)
    i.prvAddCurrentTaskToDelayedList         0x0001f094   Section        0  tasks.o(i.prvAddCurrentTaskToDelayedList)
    prvAddCurrentTaskToDelayedList           0x0001f095   Thumb Code    46  tasks.o(i.prvAddCurrentTaskToDelayedList)
    i.prvCheckForValidListAndQueue           0x0001f0c8   Section        0  timers.o(i.prvCheckForValidListAndQueue)
    prvCheckForValidListAndQueue             0x0001f0c9   Thumb Code    64  timers.o(i.prvCheckForValidListAndQueue)
    i.prvCheckTasksWaitingTermination        0x0001f118   Section        0  tasks.o(i.prvCheckTasksWaitingTermination)
    prvCheckTasksWaitingTermination          0x0001f119   Thumb Code    78  tasks.o(i.prvCheckTasksWaitingTermination)
    i.prvCopyDataFromQueue                   0x0001f170   Section        0  queue.o(i.prvCopyDataFromQueue)
    prvCopyDataFromQueue                     0x0001f171   Thumb Code    38  queue.o(i.prvCopyDataFromQueue)
    i.prvCopyDataToQueue                     0x0001f196   Section        0  queue.o(i.prvCopyDataToQueue)
    prvCopyDataToQueue                       0x0001f197   Thumb Code   118  queue.o(i.prvCopyDataToQueue)
    i.prvGetExpectedIdleTime                 0x0001f20c   Section        0  tasks.o(i.prvGetExpectedIdleTime)
    prvGetExpectedIdleTime                   0x0001f20d   Thumb Code    30  tasks.o(i.prvGetExpectedIdleTime)
    i.prvIdleTask                            0x0001f234   Section        0  tasks.o(i.prvIdleTask)
    prvIdleTask                              0x0001f235   Thumb Code    46  tasks.o(i.prvIdleTask)
    i.prvInsertTimerInActiveList             0x0001f268   Section        0  timers.o(i.prvInsertTimerInActiveList)
    prvInsertTimerInActiveList               0x0001f269   Thumb Code    52  timers.o(i.prvInsertTimerInActiveList)
    i.prvProcessReceivedCommands             0x0001f2a0   Section        0  timers.o(i.prvProcessReceivedCommands)
    prvProcessReceivedCommands               0x0001f2a1   Thumb Code   164  timers.o(i.prvProcessReceivedCommands)
    i.prvProcessTimerOrBlockTask             0x0001f348   Section        0  timers.o(i.prvProcessTimerOrBlockTask)
    prvProcessTimerOrBlockTask               0x0001f349   Thumb Code   128  timers.o(i.prvProcessTimerOrBlockTask)
    i.prvResetNextTaskUnblockTime            0x0001f3cc   Section        0  tasks.o(i.prvResetNextTaskUnblockTime)
    prvResetNextTaskUnblockTime              0x0001f3cd   Thumb Code    28  tasks.o(i.prvResetNextTaskUnblockTime)
    i.prvSampleTimeNow                       0x0001f3ec   Section        0  timers.o(i.prvSampleTimeNow)
    prvSampleTimeNow                         0x0001f3ed   Thumb Code    36  timers.o(i.prvSampleTimeNow)
    i.prvSwitchTimerLists                    0x0001f414   Section        0  timers.o(i.prvSwitchTimerLists)
    prvSwitchTimerLists                      0x0001f415   Thumb Code    84  timers.o(i.prvSwitchTimerLists)
    i.prvTaskExitError                       0x0001f46c   Section        0  port_cmsis.o(i.prvTaskExitError)
    prvTaskExitError                         0x0001f46d   Thumb Code     6  port_cmsis.o(i.prvTaskExitError)
    i.prvTimerTask                           0x0001f474   Section        0  timers.o(i.prvTimerTask)
    prvTimerTask                             0x0001f475   Thumb Code    32  timers.o(i.prvTimerTask)
    i.prvUnlockQueue                         0x0001f498   Section        0  queue.o(i.prvUnlockQueue)
    prvUnlockQueue                           0x0001f499   Thumb Code   106  queue.o(i.prvUnlockQueue)
    i.pstorage_access_status_get             0x0001f504   Section        0  pstorage.o(i.pstorage_access_status_get)
    i.pstorage_block_identifier_get          0x0001f52c   Section        0  pstorage.o(i.pstorage_block_identifier_get)
    i.pstorage_clear                         0x0001f580   Section        0  pstorage.o(i.pstorage_clear)
    i.pstorage_flash_page_end                0x0001f624   Section        0  pstorage.o(i.pstorage_flash_page_end)
    pstorage_flash_page_end                  0x0001f625   Thumb Code    32  pstorage.o(i.pstorage_flash_page_end)
    i.pstorage_flash_page_size               0x0001f648   Section        0  pstorage.o(i.pstorage_flash_page_size)
    pstorage_flash_page_size                 0x0001f649   Thumb Code    10  pstorage.o(i.pstorage_flash_page_size)
    i.pstorage_init                          0x0001f654   Section        0  pstorage.o(i.pstorage_init)
    i.pstorage_load                          0x0001f6a0   Section        0  pstorage.o(i.pstorage_load)
    i.pstorage_register                      0x0001f748   Section        0  pstorage.o(i.pstorage_register)
    i.pstorage_store                         0x0001f804   Section        0  pstorage.o(i.pstorage_store)
    i.pstorage_sys_event_handler             0x0001f894   Section        0  pstorage.o(i.pstorage_sys_event_handler)
    i.pstorage_update                        0x0001f8e0   Section        0  pstorage.o(i.pstorage_update)
    i.push_bits                              0x0001f970   Section        0  heatshrink_encoder.o(i.push_bits)
    push_bits                                0x0001f971   Thumb Code    88  heatshrink_encoder.o(i.push_bits)
    i.push_outgoing_bits                     0x0001f9c8   Section        0  heatshrink_encoder.o(i.push_outgoing_bits)
    push_outgoing_bits                       0x0001f9c9   Thumb Code    50  heatshrink_encoder.o(i.push_outgoing_bits)
    i.pvPortMalloc                           0x0001f9fc   Section        0  heap_1.o(i.pvPortMalloc)
    i.pvTaskIncrementMutexHeldCount          0x0001fa4c   Section        0  tasks.o(i.pvTaskIncrementMutexHeldCount)
    i.pxPortInitialiseStack                  0x0001fa64   Section        0  port_cmsis.o(i.pxPortInitialiseStack)
    i.rx_byte                                0x0001fa88   Section        0  nrf_drv_uart.o(i.rx_byte)
    rx_byte                                  0x0001fa89   Thumb Code    42  nrf_drv_uart.o(i.rx_byte)
    i.rx_done_event                          0x0001fac0   Section        0  nrf_drv_uart.o(i.rx_done_event)
    rx_done_event                            0x0001fac1   Thumb Code    22  nrf_drv_uart.o(i.rx_done_event)
    i.rx_enable                              0x0001fadc   Section        0  nrf_drv_uart.o(i.rx_enable)
    rx_enable                                0x0001fadd   Thumb Code    22  nrf_drv_uart.o(i.rx_enable)
    i.sample_data                            0x0001faf8   Section        0  main.o(i.sample_data)
    i.sd_check_ram_start                     0x0001fb38   Section        0  softdevice_handler.o(i.sd_check_ram_start)
    i.service_data_encode                    0x0001fb48   Section        0  ble_advdata.o(i.service_data_encode)
    service_data_encode                      0x0001fb49   Thumb Code   142  ble_advdata.o(i.service_data_encode)
    i.services_init                          0x0001fbd8   Section        0  main.o(i.services_init)
    services_init                            0x0001fbd9   Thumb Code   272  main.o(i.services_init)
    i.sm_state_change                        0x0001fcf4   Section        0  pstorage.o(i.sm_state_change)
    sm_state_change                          0x0001fcf5   Thumb Code    62  pstorage.o(i.sm_state_change)
    i.softdevice_ble_evt_handler_set         0x0001fd3c   Section        0  softdevice_handler.o(i.softdevice_ble_evt_handler_set)
    i.softdevice_enable                      0x0001fd50   Section        0  softdevice_handler.o(i.softdevice_enable)
    i.softdevice_enable_get_default_config   0x0001fd64   Section        0  softdevice_handler.o(i.softdevice_enable_get_default_config)
    i.softdevice_fault_handler               0x0001fd8c   Section        0  softdevice_handler.o(i.softdevice_fault_handler)
    i.softdevice_handler_init                0x0001fd94   Section        0  softdevice_handler.o(i.softdevice_handler_init)
    i.softdevice_handler_isEnabled           0x0001fdc4   Section        0  softdevice_handler.o(i.softdevice_handler_isEnabled)
    i.softdevice_sys_evt_handler_set         0x0001fdd0   Section        0  softdevice_handler.o(i.softdevice_sys_evt_handler_set)
    i.spi_data_collection_evt_handler        0x0001fde4   Section        0  main.o(i.spi_data_collection_evt_handler)
    spi_data_collection_evt_handler          0x0001fde5   Thumb Code     8  main.o(i.spi_data_collection_evt_handler)
    i.spi_master_0_event_handler             0x0001fdec   Section        0  main.o(i.spi_master_0_event_handler)
    i.spi_xfer                               0x0001fe6c   Section        0  nrf_drv_spi.o(i.spi_xfer)
    spi_xfer                                 0x0001fe6d   Thumb Code   114  nrf_drv_spi.o(i.spi_xfer)
    i.st_step_search                         0x0001fee0   Section        0  heatshrink_encoder.o(i.st_step_search)
    st_step_search                           0x0001fee1   Thumb Code   106  heatshrink_encoder.o(i.st_step_search)
    i.state_data_erase_swap_entry_run        0x0001ff50   Section        0  pstorage.o(i.state_data_erase_swap_entry_run)
    state_data_erase_swap_entry_run          0x0001ff51   Thumb Code    92  pstorage.o(i.state_data_erase_swap_entry_run)
    i.state_erase_data_page_entry_run        0x0001ffb4   Section        0  pstorage.o(i.state_erase_data_page_entry_run)
    state_erase_data_page_entry_run          0x0001ffb5   Thumb Code    12  pstorage.o(i.state_erase_data_page_entry_run)
    i.state_restore_head_entry_run           0x0001ffc4   Section        0  pstorage.o(i.state_restore_head_entry_run)
    state_restore_head_entry_run             0x0001ffc5   Thumb Code    36  pstorage.o(i.state_restore_head_entry_run)
    i.state_restore_tail_entry_run           0x0001ffec   Section        0  pstorage.o(i.state_restore_tail_entry_run)
    state_restore_tail_entry_run             0x0001ffed   Thumb Code    66  pstorage.o(i.state_restore_tail_entry_run)
    i.state_swap_erase_entry_run             0x00020038   Section        0  pstorage.o(i.state_swap_erase_entry_run)
    state_swap_erase_entry_run               0x00020039   Thumb Code    32  pstorage.o(i.state_swap_erase_entry_run)
    i.state_write_data_swap_entry_run        0x00020058   Section        0  pstorage.o(i.state_write_data_swap_entry_run)
    state_write_data_swap_entry_run          0x00020059   Thumb Code    42  pstorage.o(i.state_write_data_swap_entry_run)
    i.storage_operation_dummy_handler        0x00020088   Section        0  device_manager_peripheral.o(i.storage_operation_dummy_handler)
    storage_operation_dummy_handler          0x00020089   Thumb Code     4  device_manager_peripheral.o(i.storage_operation_dummy_handler)
    i.store_cmd_flash_write_execute          0x0002008c   Section        0  pstorage.o(i.store_cmd_flash_write_execute)
    store_cmd_flash_write_execute            0x0002008d   Thumb Code    82  pstorage.o(i.store_cmd_flash_write_execute)
    i.swap_erase_state_run                   0x000200e8   Section        0  pstorage.o(i.swap_erase_state_run)
    swap_erase_state_run                     0x000200e9   Thumb Code    24  pstorage.o(i.swap_erase_state_run)
    i.swap_sub_state_err_busy_process        0x00020104   Section        0  pstorage.o(i.swap_sub_state_err_busy_process)
    swap_sub_state_err_busy_process          0x00020105   Thumb Code    20  pstorage.o(i.swap_sub_state_err_busy_process)
    i.swap_sub_state_state_change            0x0002011c   Section        0  pstorage.o(i.swap_sub_state_state_change)
    swap_sub_state_state_change              0x0002011d   Thumb Code    12  pstorage.o(i.swap_sub_state_state_change)
    i.switch_state                           0x00020130   Section        0  main.o(i.switch_state)
    switch_state                             0x00020131   Thumb Code    72  main.o(i.switch_state)
    i.sys_evt_dispatch                       0x00020184   Section        0  main.o(i.sys_evt_dispatch)
    sys_evt_dispatch                         0x00020185   Thumb Code    16  main.o(i.sys_evt_dispatch)
    i.tail_restore_state_run                 0x00020194   Section        0  pstorage.o(i.tail_restore_state_run)
    tail_restore_state_run                   0x00020195   Thumb Code    22  pstorage.o(i.tail_restore_state_run)
    i.transfer_byte                          0x000201b0   Section        0  nrf_drv_spi.o(i.transfer_byte)
    transfer_byte                            0x000201b1   Thumb Code    80  nrf_drv_spi.o(i.transfer_byte)
    i.tx_byte                                0x00020200   Section        0  nrf_drv_uart.o(i.tx_byte)
    tx_byte                                  0x00020201   Thumb Code    30  nrf_drv_uart.o(i.tx_byte)
    i.tx_done_event                          0x0002022c   Section        0  nrf_drv_uart.o(i.tx_done_event)
    tx_done_event                            0x0002022d   Thumb Code    26  nrf_drv_uart.o(i.tx_done_event)
    i.uart_event_handle                      0x0002024c   Section        0  main.o(i.uart_event_handle)
    i.uart_event_handler                     0x00020280   Section        0  app_uart_fifo.o(i.uart_event_handler)
    uart_event_handler                       0x00020281   Thumb Code   166  app_uart_fifo.o(i.uart_event_handler)
    i.uart_irq_handler                       0x00020330   Section        0  nrf_drv_uart.o(i.uart_irq_handler)
    uart_irq_handler                         0x00020331   Thumb Code   278  nrf_drv_uart.o(i.uart_irq_handler)
    i.uint16_encode                          0x00020458   Section        0  ble_advdata.o(i.uint16_encode)
    uint16_encode                            0x00020459   Thumb Code    10  ble_advdata.o(i.uint16_encode)
    i.ulPortDisableISR                       0x00020464   Section        0  queue.o(i.ulPortDisableISR)
    ulPortDisableISR                         0x00020465   Thumb Code   126  queue.o(i.ulPortDisableISR)
    i.update_status_bit_reset                0x000204ec   Section        0  device_manager_peripheral.o(i.update_status_bit_reset)
    update_status_bit_reset                  0x000204ed   Thumb Code    14  device_manager_peripheral.o(i.update_status_bit_reset)
    i.uuid_list_encode                       0x00020500   Section        0  ble_advdata.o(i.uuid_list_encode)
    uuid_list_encode                         0x00020501   Thumb Code    48  ble_advdata.o(i.uuid_list_encode)
    i.uuid_list_sized_encode                 0x00020530   Section        0  ble_advdata.o(i.uuid_list_sized_encode)
    uuid_list_sized_encode                   0x00020531   Thumb Code   174  ble_advdata.o(i.uuid_list_sized_encode)
    i.uxListRemove                           0x000205de   Section        0  list.o(i.uxListRemove)
    i.vListInitialise                        0x00020602   Section        0  list.o(i.vListInitialise)
    i.vListInitialiseItem                    0x00020618   Section        0  list.o(i.vListInitialiseItem)
    i.vListInsert                            0x0002061e   Section        0  list.o(i.vListInsert)
    i.vListInsertEnd                         0x0002064e   Section        0  list.o(i.vListInsertEnd)
    i.vPortDisableISR                        0x00020666   Section        0  port_cmsis.o(i.vPortDisableISR)
    vPortDisableISR                          0x00020667   Thumb Code    50  port_cmsis.o(i.vPortDisableISR)
    i.vPortDisableISR                        0x00020698   Section        0  tasks.o(i.vPortDisableISR)
    vPortDisableISR                          0x00020699   Thumb Code    50  tasks.o(i.vPortDisableISR)
    i.vPortEnableISR                         0x000206ca   Section        0  port_cmsis_systick.o(i.vPortEnableISR)
    vPortEnableISR                           0x000206cb   Thumb Code    26  port_cmsis_systick.o(i.vPortEnableISR)
    i.vPortEnterCritical                     0x000206e4   Section        0  port_cmsis.o(i.vPortEnterCritical)
    i.vPortExitCritical                      0x000206f8   Section        0  port_cmsis.o(i.vPortExitCritical)
    i.vPortFree                              0x00020740   Section        0  heap_1.o(i.vPortFree)
    i.vPortRestoreISR                        0x00020742   Section        0  queue.o(i.vPortRestoreISR)
    vPortRestoreISR                          0x00020743   Thumb Code    32  queue.o(i.vPortRestoreISR)
    i.vPortSafeTaskSwitchContext             0x00020762   Section        0  port_cmsis.o(i.vPortSafeTaskSwitchContext)
    i.vPortSetupTimerInterrupt               0x000207d0   Section        0  port_cmsis_systick.o(i.vPortSetupTimerInterrupt)
    i.vPortSuppressTicksAndSleep             0x0002081c   Section        0  port_cmsis_systick.o(i.vPortSuppressTicksAndSleep)
    i.vPortTaskYield                         0x000208b0   Section        0  port_cmsis.o(i.vPortTaskYield)
    i.vQueueAddToRegistry                    0x000208dc   Section        0  queue.o(i.vQueueAddToRegistry)
    i.vQueueWaitForMessageRestricted         0x00020900   Section        0  queue.o(i.vQueueWaitForMessageRestricted)
    i.vTaskMissedYield                       0x00020938   Section        0  tasks.o(i.vTaskMissedYield)
    i.vTaskPlaceOnEventList                  0x00020944   Section        0  tasks.o(i.vTaskPlaceOnEventList)
    i.vTaskPlaceOnEventListRestricted        0x00020990   Section        0  tasks.o(i.vTaskPlaceOnEventListRestricted)
    i.vTaskPriorityInherit                   0x000209c8   Section        0  tasks.o(i.vTaskPriorityInherit)
    i.vTaskSetTimeOutState                   0x00020a48   Section        0  tasks.o(i.vTaskSetTimeOutState)
    i.vTaskStartScheduler                    0x00020a58   Section        0  tasks.o(i.vTaskStartScheduler)
    i.vTaskStepTick                          0x00020aa4   Section        0  tasks.o(i.vTaskStepTick)
    i.vTaskSuspendAll                        0x00020ab4   Section        0  tasks.o(i.vTaskSuspendAll)
    i.vTaskSwitchContext                     0x00020ac4   Section        0  tasks.o(i.vTaskSwitchContext)
    i.whitelist_has_entries                  0x00020b30   Section        0  ble_advertising.o(i.whitelist_has_entries)
    whitelist_has_entries                    0x00020b31   Thumb Code    16  ble_advertising.o(i.whitelist_has_entries)
    i.xPortStartScheduler                    0x00020b40   Section        0  port_cmsis.o(i.xPortStartScheduler)
    i.xQueueGenericCreate                    0x00020b78   Section        0  queue.o(i.xQueueGenericCreate)
    i.xQueueGenericReceive                   0x00020bb6   Section        0  queue.o(i.xQueueGenericReceive)
    i.xQueueGenericReset                     0x00020cc6   Section        0  queue.o(i.xQueueGenericReset)
    i.xQueueGenericSend                      0x00020d28   Section        0  queue.o(i.xQueueGenericSend)
    i.xQueueGenericSendFromISR               0x00020e06   Section        0  queue.o(i.xQueueGenericSendFromISR)
    i.xTaskCheckForTimeOut                   0x00020e68   Section        0  tasks.o(i.xTaskCheckForTimeOut)
    i.xTaskGenericCreate                     0x00020eb0   Section        0  tasks.o(i.xTaskGenericCreate)
    i.xTaskGetSchedulerState                 0x00021010   Section        0  tasks.o(i.xTaskGetSchedulerState)
    i.xTaskGetTickCount                      0x00021030   Section        0  tasks.o(i.xTaskGetTickCount)
    i.xTaskGetTickCountFromISR               0x0002103c   Section        0  tasks.o(i.xTaskGetTickCountFromISR)
    i.xTaskIncrementTick                     0x00021048   Section        0  tasks.o(i.xTaskIncrementTick)
    i.xTaskPriorityDisinherit                0x000210ec   Section        0  tasks.o(i.xTaskPriorityDisinherit)
    i.xTaskRemoveFromEventList               0x0002115c   Section        0  tasks.o(i.xTaskRemoveFromEventList)
    i.xTaskResumeAll                         0x000211c0   Section        0  tasks.o(i.xTaskResumeAll)
    i.xTimerCreate                           0x00021260   Section        0  timers.o(i.xTimerCreate)
    i.xTimerCreateTimerTask                  0x00021298   Section        0  timers.o(i.xTimerCreateTimerTask)
    i.xTimerGenericCommand                   0x000212dc   Section        0  timers.o(i.xTimerGenericCommand)
    .constdata                               0x00021328   Section      156  main.o(.constdata)
    m_spi_master_0                           0x00021328   Data           8  main.o(.constdata)
    .constdata                               0x000213c4   Section       48  device_manager_peripheral.o(.constdata)
    .constdata                               0x000213f4   Section       32  nrf_drv_uart.o(.constdata)
    m_default_config                         0x000213f4   Data          32  nrf_drv_uart.o(.constdata)
    .constdata                               0x00021414   Section       40  pstorage.o(.constdata)
    swap_sub_state_sm_lut                    0x00021414   Data          20  pstorage.o(.constdata)
    swap_sub_state_sm_lut                    0x00021428   Data          20  pstorage.o(.constdata)
    .constdata                               0x0002143c   Section       16  nrf_drv_spi.o(.constdata)
    m_default_config                         0x0002143c   Data          16  nrf_drv_spi.o(.constdata)
    .constdata                               0x0002144c   Section       32  app_uart_fifo.o(.constdata)
    .constdata                               0x0002146c   Section        4  port_cmsis.o(.constdata)
    <Data1>                                  0x0002146c   Data           4  port_cmsis.o(.constdata)
    .data                                    0x20001f00   Section      149  main.o(.data)
    clear_to_send                            0x20001f00   Data           1  main.o(.data)
    connected                                0x20001f01   Data           1  main.o(.data)
    rtos_running                             0x20001f02   Data           1  main.o(.data)
    ble_initialized                          0x20001f03   Data           1  main.o(.data)
    first_tx_successful                      0x20001f04   Data           1  main.o(.data)
    last_tx_buf                              0x20001f05   Data           1  main.o(.data)
    m_intan_function                         0x20001f06   Data           1  main.o(.data)
    m_transfer_completed                     0x20001f07   Data           1  main.o(.data)
    tx_in_progress                           0x20001f08   Data           1  main.o(.data)
    active_buffer                            0x20001f09   Data           1  main.o(.data)
    comp_index                               0x20001f0a   Data           1  main.o(.data)
    tx_index                                 0x20001f0b   Data           1  main.o(.data)
    multilink_peripheral_data                0x20001f0c   Data           1  main.o(.data)
    index                                    0x20001f0d   Data           1  main.o(.data)
    m_base_uuid_type                         0x20001f0e   Data           1  main.o(.data)
    m_app_handle                             0x20001f0f   Data           1  main.o(.data)
    m_conn_handle                            0x20001f10   Data           2  main.o(.data)
    ab_capacity                              0x20001f12   Data           2  main.o(.data)
    m_tx_data_spi                            0x20001f14   Data           2  main.o(.data)
    m_rx_data_spi                            0x20001f16   Data           2  main.o(.data)
    comp_buffers_ready                       0x20001f18   Data           2  main.o(.data)
    intan_convert_channel                    0x20001f44   Data           4  main.o(.data)
    curr_tx_size                             0x20001f48   Data           4  main.o(.data)
    m_char_handles                           0x20001f4c   Data           8  main.o(.data)
    transmission_buffers                     0x20001f54   Data           8  main.o(.data)
    data_buffers                             0x20001f5c   Data           8  main.o(.data)
    tx_buffers_pending                       0x20001f64   Data           8  main.o(.data)
    buf_delimiter                            0x20001f6c   Data          20  main.o(.data)
    multilink_peripheral_ud                  0x20001f80   Data          21  main.o(.data)
    .data                                    0x20001f98   Section       31  ble_advertising.o(.data)
    m_advertising_start_pending              0x20001f98   Data           1  ble_advertising.o(.data)
    m_whitelist_temporarily_disabled         0x20001f99   Data           1  ble_advertising.o(.data)
    m_whitelist_reply_expected               0x20001f9a   Data           1  ble_advertising.o(.data)
    m_peer_addr_reply_expected               0x20001f9b   Data           1  ble_advertising.o(.data)
    m_adv_evt                                0x20001f9c   Data           1  ble_advertising.o(.data)
    m_adv_mode_current                       0x20001f9d   Data           1  ble_advertising.o(.data)
    m_tx_power_level                         0x20001f9e   Data           1  ble_advertising.o(.data)
    current_slave_link_conn_handle           0x20001fa0   Data           2  ble_advertising.o(.data)
    m_evt_handler                            0x20001fa4   Data           4  ble_advertising.o(.data)
    m_error_handler                          0x20001fa8   Data           4  ble_advertising.o(.data)
    m_slave_conn_int                         0x20001fac   Data           4  ble_advertising.o(.data)
    m_peer_address                           0x20001fb0   Data           7  ble_advertising.o(.data)
    .data                                    0x20001fb8   Section       16  device_manager_peripheral.o(.data)
    m_module_initialized                     0x20001fb8   Data           1  device_manager_peripheral.o(.data)
    m_irk_index_table                        0x20001fb9   Data           2  device_manager_peripheral.o(.data)
    m_peer_addr_update                       0x20001fbc   Data           4  device_manager_peripheral.o(.data)
    m_storage_handle                         0x20001fc0   Data           8  device_manager_peripheral.o(.data)
    .data                                    0x20001fc8   Section       36  pstorage.o(.data)
    m_state                                  0x20001fc8   Data           1  pstorage.o(.data)
    m_swap_sub_state                         0x20001fc9   Data           1  pstorage.o(.data)
    m_next_app_instance                      0x20001fca   Data           2  pstorage.o(.data)
    m_flags                                  0x20001fcc   Data           4  pstorage.o(.data)
    m_next_page_addr                         0x20001fd0   Data           4  pstorage.o(.data)
    m_head_word_size                         0x20001fd4   Data           4  pstorage.o(.data)
    m_tail_word_size                         0x20001fd8   Data           4  pstorage.o(.data)
    m_current_page_id                        0x20001fdc   Data           4  pstorage.o(.data)
    m_num_of_command_retries                 0x20001fe0   Data           4  pstorage.o(.data)
    m_num_of_bytes_written                   0x20001fe4   Data           4  pstorage.o(.data)
    m_app_data_size                          0x20001fe8   Data           4  pstorage.o(.data)
    .data                                    0x20001fec   Section        8  app_uart_fifo.o(.data)
    tx_buffer                                0x20001fec   Data           1  app_uart_fifo.o(.data)
    tx_tmp                                   0x20001fed   Data           1  app_uart_fifo.o(.data)
    rx_buffer                                0x20001fee   Data           1  app_uart_fifo.o(.data)
    m_event_handler                          0x20001ff0   Data           4  app_uart_fifo.o(.data)
    .data                                    0x20001ff4   Section        4  retarget.o(.data)
    .data                                    0x20001ff8   Section       20  softdevice_handler.o(.data)
    m_softdevice_enabled                     0x20001ff8   Data           1  softdevice_handler.o(.data)
    m_ble_evt_buffer_size                    0x20001ffa   Data           2  softdevice_handler.o(.data)
    m_evt_schedule_func                      0x20001ffc   Data           4  softdevice_handler.o(.data)
    mp_ble_evt_buffer                        0x20002000   Data           4  softdevice_handler.o(.data)
    m_ble_evt_handler                        0x20002004   Data           4  softdevice_handler.o(.data)
    m_sys_evt_handler                        0x20002008   Data           4  softdevice_handler.o(.data)
    .data                                    0x2000200c   Section       20  timers.o(.data)
    xTimerQueue                              0x2000200c   Data           4  timers.o(.data)
    xTimerTaskHandle                         0x20002010   Data           4  timers.o(.data)
    xLastTime                                0x20002014   Data           4  timers.o(.data)
    pxCurrentTimerList                       0x20002018   Data           4  timers.o(.data)
    pxOverflowTimerList                      0x2000201c   Data           4  timers.o(.data)
    .data                                    0x20002020   Section        8  heap_1.o(.data)
    xNextFreeByte                            0x20002020   Data           4  heap_1.o(.data)
    pucAlignedHeap                           0x20002024   Data           4  heap_1.o(.data)
    .data                                    0x20002028   Section        8  port_cmsis.o(.data)
    uxCriticalNesting                        0x20002028   Data           4  port_cmsis.o(.data)
    uxYieldFlag                              0x2000202c   Data           4  port_cmsis.o(.data)
    .data                                    0x20002030   Section       60  tasks.o(.data)
    uxTasksDeleted                           0x20002034   Data           4  tasks.o(.data)
    xIdleTaskHandle                          0x20002038   Data           4  tasks.o(.data)
    uxCurrentNumberOfTasks                   0x2000203c   Data           4  tasks.o(.data)
    xTickCount                               0x20002040   Data           4  tasks.o(.data)
    uxTopReadyPriority                       0x20002044   Data           4  tasks.o(.data)
    xSchedulerRunning                        0x20002048   Data           4  tasks.o(.data)
    uxPendedTicks                            0x2000204c   Data           4  tasks.o(.data)
    xYieldPending                            0x20002050   Data           4  tasks.o(.data)
    xNumOfOverflows                          0x20002054   Data           4  tasks.o(.data)
    uxTaskNumber                             0x20002058   Data           4  tasks.o(.data)
    xNextTaskUnblockTime                     0x2000205c   Data           4  tasks.o(.data)
    uxSchedulerSuspended                     0x20002060   Data           4  tasks.o(.data)
    pxDelayedTaskList                        0x20002064   Data           4  tasks.o(.data)
    pxOverflowDelayedTaskList                0x20002068   Data           4  tasks.o(.data)
    .data                                    0x2000206c   Section        4  system_nrf51.o(.data)
    __tagsym$$used                           0x2000206c   Number         0  system_nrf51.o(.data)
    .data                                    0x20002070   Section        4  mvars.o(.data)
    .data                                    0x20002074   Section        4  mvars.o(.data)
    .bss                                     0x20002078   Section     2178  main.o(.bss)
    zeroes_packet                            0x20002078   Data          20  main.o(.bss)
    data_array                               0x2000208c   Data          20  main.o(.bss)
    rx_buf                                   0x200020a0   Data         256  main.o(.bss)
    tx_buf                                   0x200021a0   Data         256  main.o(.bss)
    BLE_EVT_BUFFER                           0x200022a0   Data          72  main.o(.bss)
    hse                                      0x200022e8   Data        1554  main.o(.bss)
    .bss                                     0x200028fc   Section      259  ble_advertising.o(.bss)
    m_advdata                                0x200028fc   Data          56  ble_advertising.o(.bss)
    m_adv_modes_config                       0x20002934   Data          36  ble_advertising.o(.bss)
    m_whitelist                              0x20002958   Data          16  ble_advertising.o(.bss)
    mp_whitelist_addr                        0x20002968   Data          32  ble_advertising.o(.bss)
    mp_whitelist_irk                         0x20002988   Data          32  ble_advertising.o(.bss)
    m_manuf_specific_data                    0x200029a8   Data          12  ble_advertising.o(.bss)
    m_manuf_data_array                       0x200029b4   Data          31  ble_advertising.o(.bss)
    m_service_data                           0x200029d4   Data          12  ble_advertising.o(.bss)
    m_service_data_array                     0x200029e0   Data          31  ble_advertising.o(.bss)
    .bss                                     0x20002a00   Section      159  device_manager_peripheral.o(.bss)
    m_peer_table                             0x20002a00   Data          56  device_manager_peripheral.o(.bss)
    m_bond_table                             0x20002a38   Data          28  device_manager_peripheral.o(.bss)
    m_gatts_table                            0x20002a54   Data          28  device_manager_peripheral.o(.bss)
    m_connection_table                       0x20002a70   Data          12  device_manager_peripheral.o(.bss)
    m_application_table                      0x20002a7c   Data          12  device_manager_peripheral.o(.bss)
    m_local_id_info                          0x20002a88   Data          23  device_manager_peripheral.o(.bss)
    .bss                                     0x20002aa0   Section       72  nrf_drv_gpiote.o(.bss)
    m_cb                                     0x20002aa0   Data          72  nrf_drv_gpiote.o(.bss)
    .bss                                     0x20002ae8   Section       28  nrf_drv_uart.o(.bss)
    m_cb                                     0x20002ae8   Data          28  nrf_drv_uart.o(.bss)
    .bss                                     0x20002b04   Section      216  pstorage.o(.bss)
    m_cmd_queue                              0x20002b04   Data         204  pstorage.o(.bss)
    m_app_table                              0x20002bd0   Data          12  pstorage.o(.bss)
    .bss                                     0x20002bdc   Section       32  nrf_drv_spi.o(.bss)
    m_cb                                     0x20002bdc   Data          32  nrf_drv_spi.o(.bss)
    .bss                                     0x20002bfc   Section       12  nrf_drv_clock.o(.bss)
    m_clock_cb                               0x20002bfc   Data          12  nrf_drv_clock.o(.bss)
    .bss                                     0x20002c08   Section       32  app_uart_fifo.o(.bss)
    m_rx_fifo                                0x20002c08   Data          16  app_uart_fifo.o(.bss)
    m_tx_fifo                                0x20002c18   Data          16  app_uart_fifo.o(.bss)
    .bss                                     0x20002c28   Section       16  queue.o(.bss)
    .bss                                     0x20002c38   Section       40  timers.o(.bss)
    xActiveTimerList1                        0x20002c38   Data          20  timers.o(.bss)
    xActiveTimerList2                        0x20002c4c   Data          20  timers.o(.bss)
    .bss                                     0x20002c60   Section     4096  heap_1.o(.bss)
    ucHeap                                   0x20002c60   Data        4096  heap_1.o(.bss)
    .bss                                     0x20003c60   Section      160  tasks.o(.bss)
    pxReadyTasksLists                        0x20003c60   Data          60  tasks.o(.bss)
    xDelayedTaskList1                        0x20003c9c   Data          20  tasks.o(.bss)
    xDelayedTaskList2                        0x20003cb0   Data          20  tasks.o(.bss)
    xPendingReadyList                        0x20003cc4   Data          20  tasks.o(.bss)
    xTasksWaitingTermination                 0x20003cd8   Data          20  tasks.o(.bss)
    xSuspendedTaskList                       0x20003cec   Data          20  tasks.o(.bss)
    HEAP                                     0x20003d00   Section     2048  arm_startup_nrf51.o(HEAP)
    STACK                                    0x20004500   Section     2048  arm_startup_nrf51.o(STACK)

    Global Symbols

    Symbol Name                              Value     Ov Type        Size  Object(Section)

    BuildAttributes$$THM_ISAv3M$S$PE$A:L22$X:L11$S22$IEEE1$IW$USESV6$~STKCKD$USESV7$~SHL$OSPACE$ROPI$EBA8$MICROLIB$REQ8$PRES8$EABIv2 0x00000000   Number         0  anon$$obj.o ABSOLUTE
    __ARM_use_no_argv                        0x00000000   Number         0  main.o ABSOLUTE
    _printf_a                                0x00000000   Number         0  stubs.o ABSOLUTE
    _printf_c                                0x00000000   Number         0  stubs.o ABSOLUTE
    _printf_charcount                        0x00000000   Number         0  stubs.o ABSOLUTE
    _printf_d                                0x00000000   Number         0  stubs.o ABSOLUTE
    _printf_e                                0x00000000   Number         0  stubs.o ABSOLUTE
    _printf_f                                0x00000000   Number         0  stubs.o ABSOLUTE
    _printf_flags                            0x00000000   Number         0  stubs.o ABSOLUTE
    _printf_fp_dec                           0x00000000   Number         0  stubs.o ABSOLUTE
    _printf_fp_hex                           0x00000000   Number         0  stubs.o ABSOLUTE
    _printf_g                                0x00000000   Number         0  stubs.o ABSOLUTE
    _printf_i                                0x00000000   Number         0  stubs.o ABSOLUTE
    _printf_int_dec                          0x00000000   Number         0  stubs.o ABSOLUTE
    _printf_l                                0x00000000   Number         0  stubs.o ABSOLUTE
    _printf_lc                               0x00000000   Number         0  stubs.o ABSOLUTE
    _printf_ll                               0x00000000   Number         0  stubs.o ABSOLUTE
    _printf_lld                              0x00000000   Number         0  stubs.o ABSOLUTE
    _printf_lli                              0x00000000   Number         0  stubs.o ABSOLUTE
    _printf_llo                              0x00000000   Number         0  stubs.o ABSOLUTE
    _printf_llu                              0x00000000   Number         0  stubs.o ABSOLUTE
    _printf_llx                              0x00000000   Number         0  stubs.o ABSOLUTE
    _printf_longlong_dec                     0x00000000   Number         0  stubs.o ABSOLUTE
    _printf_longlong_hex                     0x00000000   Number         0  stubs.o ABSOLUTE
    _printf_longlong_oct                     0x00000000   Number         0  stubs.o ABSOLUTE
    _printf_ls                               0x00000000   Number         0  stubs.o ABSOLUTE
    _printf_mbtowc                           0x00000000   Number         0  stubs.o ABSOLUTE
    _printf_n                                0x00000000   Number         0  stubs.o ABSOLUTE
    _printf_o                                0x00000000   Number         0  stubs.o ABSOLUTE
    _printf_p                                0x00000000   Number         0  stubs.o ABSOLUTE
    _printf_percent                          0x00000000   Number         0  stubs.o ABSOLUTE
    _printf_pre_padding                      0x00000000   Number         0  stubs.o ABSOLUTE
    _printf_return_value                     0x00000000   Number         0  stubs.o ABSOLUTE
    _printf_s                                0x00000000   Number         0  stubs.o ABSOLUTE
    _printf_sizespec                         0x00000000   Number         0  stubs.o ABSOLUTE
    _printf_str                              0x00000000   Number         0  stubs.o ABSOLUTE
    _printf_truncate_signed                  0x00000000   Number         0  stubs.o ABSOLUTE
    _printf_truncate_unsigned                0x00000000   Number         0  stubs.o ABSOLUTE
    _printf_u                                0x00000000   Number         0  stubs.o ABSOLUTE
    _printf_wc                               0x00000000   Number         0  stubs.o ABSOLUTE
    _printf_wctomb                           0x00000000   Number         0  stubs.o ABSOLUTE
    _printf_widthprec                        0x00000000   Number         0  stubs.o ABSOLUTE
    _printf_x                                0x00000000   Number         0  stubs.o ABSOLUTE
    __cpp_initialize__aeabi_                  - Undefined Weak Reference
    __cxa_finalize                            - Undefined Weak Reference
    _clock_init                               - Undefined Weak Reference
    _microlib_exit                            - Undefined Weak Reference
    __Vectors_Size                           0x000000c0   Number         0  arm_startup_nrf51.o ABSOLUTE
    __Vectors                                0x0001b000   Data           4  arm_startup_nrf51.o(RESET)
    __Vectors_End                            0x0001b0c0   Data           0  arm_startup_nrf51.o(RESET)
    __main                                   0x0001b0c1   Thumb Code     0  entry.o(.ARM.Collect$$$$00000000)
    _main_stk                                0x0001b0c1   Thumb Code     0  entry2.o(.ARM.Collect$$$$00000001)
    _main_scatterload                        0x0001b0c5   Thumb Code     0  entry5.o(.ARM.Collect$$$$00000004)
    __main_after_scatterload                 0x0001b0c9   Thumb Code     0  entry5.o(.ARM.Collect$$$$00000004)
    _main_clock                              0x0001b0c9   Thumb Code     0  entry7b.o(.ARM.Collect$$$$00000008)
    _main_cpp_init                           0x0001b0c9   Thumb Code     0  entry8b.o(.ARM.Collect$$$$0000000A)
    _main_init                               0x0001b0c9   Thumb Code     0  entry9a.o(.ARM.Collect$$$$0000000B)
    __rt_final_cpp                           0x0001b0d1   Thumb Code     0  entry10a.o(.ARM.Collect$$$$0000000D)
    __rt_final_exit                          0x0001b0d1   Thumb Code     0  entry11a.o(.ARM.Collect$$$$0000000F)
    __asm___11_nrf_delay_c_532987f3__nrf_delay_us 0x0001b0d5   Thumb Code    30  nrf_delay.o(.emb_text)
    SVC_Handler                              0x0001b0f5   Thumb Code     0  port.o(.emb_text)
    vPortStartFirstTask                      0x0001b0f5   Thumb Code    36  port.o(.emb_text)
    PendSV_Handler                           0x0001b121   Thumb Code    60  port.o(.emb_text)
    Reset_Handler                            0x0001b161   Thumb Code    26  arm_startup_nrf51.o(.text)
    NMI_Handler                              0x0001b17b   Thumb Code     2  arm_startup_nrf51.o(.text)
    HardFault_Handler                        0x0001b17d   Thumb Code     2  arm_startup_nrf51.o(.text)
    SysTick_Handler                          0x0001b183   Thumb Code     2  arm_startup_nrf51.o(.text)
    ADC_IRQHandler                           0x0001b185   Thumb Code     0  arm_startup_nrf51.o(.text)
    CCM_AAR_IRQHandler                       0x0001b185   Thumb Code     0  arm_startup_nrf51.o(.text)
    ECB_IRQHandler                           0x0001b185   Thumb Code     0  arm_startup_nrf51.o(.text)
    LPCOMP_IRQHandler                        0x0001b185   Thumb Code     0  arm_startup_nrf51.o(.text)
    POWER_CLOCK_IRQHandler                   0x0001b185   Thumb Code     0  arm_startup_nrf51.o(.text)
    QDEC_IRQHandler                          0x0001b185   Thumb Code     0  arm_startup_nrf51.o(.text)
    RADIO_IRQHandler                         0x0001b185   Thumb Code     0  arm_startup_nrf51.o(.text)
    RNG_IRQHandler                           0x0001b185   Thumb Code     0  arm_startup_nrf51.o(.text)
    RTC0_IRQHandler                          0x0001b185   Thumb Code     0  arm_startup_nrf51.o(.text)
    SPI1_TWI1_IRQHandler                     0x0001b185   Thumb Code     0  arm_startup_nrf51.o(.text)
    SWI0_IRQHandler                          0x0001b185   Thumb Code     0  arm_startup_nrf51.o(.text)
    SWI1_IRQHandler                          0x0001b185   Thumb Code     0  arm_startup_nrf51.o(.text)
    SWI3_IRQHandler                          0x0001b185   Thumb Code     0  arm_startup_nrf51.o(.text)
    SWI4_IRQHandler                          0x0001b185   Thumb Code     0  arm_startup_nrf51.o(.text)
    SWI5_IRQHandler                          0x0001b185   Thumb Code     0  arm_startup_nrf51.o(.text)
    TEMP_IRQHandler                          0x0001b185   Thumb Code     0  arm_startup_nrf51.o(.text)
    TIMER0_IRQHandler                        0x0001b185   Thumb Code     0  arm_startup_nrf51.o(.text)
    TIMER1_IRQHandler                        0x0001b185   Thumb Code     0  arm_startup_nrf51.o(.text)
    TIMER2_IRQHandler                        0x0001b185   Thumb Code     0  arm_startup_nrf51.o(.text)
    WDT_IRQHandler                           0x0001b185   Thumb Code     0  arm_startup_nrf51.o(.text)
    __aeabi_uidiv                            0x0001b199   Thumb Code     0  uidiv.o(.text)
    __aeabi_uidivmod                         0x0001b199   Thumb Code    44  uidiv.o(.text)
    __aeabi_idiv                             0x0001b1c5   Thumb Code     0  idiv.o(.text)
    __aeabi_idivmod                          0x0001b1c5   Thumb Code    40  idiv.o(.text)
    ___aeabi_memcpy8$move                    0x0001b1ed   Thumb Code     0  memmovea.o(.text)
    __aeabi_memcpy                           0x0001b1ed   Thumb Code    64  memmovea.o(.text)
    __aeabi_memcpy4                          0x0001b1ed   Thumb Code     0  memmovea.o(.text)
    __aeabi_memmove                          0x0001b1ed   Thumb Code     0  memmovea.o(.text)
    __aeabi_memmove4                         0x0001b1ed   Thumb Code     0  memmovea.o(.text)
    __aeabi_memmove8                         0x0001b1ed   Thumb Code     0  memmovea.o(.text)
    __aeabi_memset                           0x0001b22d   Thumb Code    14  memseta.o(.text)
    __aeabi_memset4                          0x0001b22d   Thumb Code     0  memseta.o(.text)
    __aeabi_memset8                          0x0001b22d   Thumb Code     0  memseta.o(.text)
    __aeabi_memclr                           0x0001b23b   Thumb Code     4  memseta.o(.text)
    __aeabi_memclr4                          0x0001b23b   Thumb Code     0  memseta.o(.text)
    __aeabi_memclr8                          0x0001b23b   Thumb Code     0  memseta.o(.text)
    _memset$wrapper                          0x0001b23f   Thumb Code    18  memseta.o(.text)
    strlen                                   0x0001b251   Thumb Code    14  strlen.o(.text)
    memcmp                                   0x0001b25f   Thumb Code    26  memcmp.o(.text)
    __aeabi_uldivmod                         0x0001b279   Thumb Code    96  uldiv.o(.text)
    __I$use$fp                               0x0001b2d9   Thumb Code     0  iusefp.o(.text)
    __aeabi_dadd                             0x0001b2d9   Thumb Code   328  dadd.o(.text)
    __aeabi_dsub                             0x0001b421   Thumb Code    12  dadd.o(.text)
    __aeabi_drsub                            0x0001b42d   Thumb Code    12  dadd.o(.text)
    __aeabi_dmul                             0x0001b43d   Thumb Code   202  dmul.o(.text)
    __aeabi_ddiv                             0x0001b50d   Thumb Code   234  ddiv.o(.text)
    __aeabi_d2ulz                            0x0001b5fd   Thumb Code    54  dfixul.o(.text)
    __aeabi_cdrcmple                         0x0001b63d   Thumb Code    38  cdrcmple.o(.text)
    __scatterload                            0x0001b665   Thumb Code    28  init.o(.text)
    __scatterload_rt2                        0x0001b665   Thumb Code     0  init.o(.text)
    __aeabi_llsl                             0x0001b689   Thumb Code    32  llshl.o(.text)
    _ll_shift_l                              0x0001b689   Thumb Code     0  llshl.o(.text)
    __aeabi_llsr                             0x0001b6a9   Thumb Code    34  llushr.o(.text)
    _ll_ushift_r                             0x0001b6a9   Thumb Code     0  llushr.o(.text)
    __aeabi_lasr                             0x0001b6cb   Thumb Code    38  llsshr.o(.text)
    _ll_sshift_r                             0x0001b6cb   Thumb Code     0  llsshr.o(.text)
    _double_round                            0x0001b6f1   Thumb Code    26  depilogue.o(.text)
    _double_epilogue                         0x0001b70b   Thumb Code   164  depilogue.o(.text)
    __decompress                             0x0001b7af   Thumb Code     0  __dczerorl2.o(.text)
    __decompress1                            0x0001b7af   Thumb Code    86  __dczerorl2.o(.text)
    GPIOTE_IRQHandler                        0x0001b805   Thumb Code   234  nrf_drv_gpiote.o(i.GPIOTE_IRQHandler)
    RTC1_IRQHandler                          0x0001b90d   Thumb Code   160  port_cmsis_systick.o(i.RTC1_IRQHandler)
    SPI0_TWI0_IRQHandler                     0x0001b9b9   Thumb Code    46  nrf_drv_spi.o(i.SPI0_TWI0_IRQHandler)
    SWI2_IRQHandler                          0x0001b9f1   Thumb Code    28  softdevice_handler.o(i.SWI2_IRQHandler)
    SystemInit                               0x0001ba11   Thumb Code    64  system_nrf51.o(i.SystemInit)
    UART0_IRQHandler                         0x0001ba65   Thumb Code     8  nrf_drv_uart.o(i.UART0_IRQHandler)
    __0printf                                0x0001ba6d   Thumb Code    24  printfa.o(i.__0printf)
    __1printf                                0x0001ba6d   Thumb Code     0  printfa.o(i.__0printf)
    __2printf                                0x0001ba6d   Thumb Code     0  printfa.o(i.__0printf)
    __c89printf                              0x0001ba6d   Thumb Code     0  printfa.o(i.__0printf)
    printf                                   0x0001ba6d   Thumb Code     0  printfa.o(i.__0printf)
    __ARM_clz                                0x0001ba8d   Thumb Code    46  depilogue.o(i.__ARM_clz)
    __ARM_common_switch8                     0x0001babb   Thumb Code    26  ble_srv_common.o(i.__ARM_common_switch8)
    __scatterload_copy                       0x0001bad5   Thumb Code    14  handlers.o(i.__scatterload_copy)
    __scatterload_null                       0x0001bae3   Thumb Code     2  handlers.o(i.__scatterload_null)
    __scatterload_zeroinit                   0x0001bae5   Thumb Code    14  handlers.o(i.__scatterload_zeroinit)
    adv_data_encode                          0x0001c391   Thumb Code   534  ble_advdata.o(i.adv_data_encode)
    app_error_fault_handler                  0x0001c5a9   Thumb Code    18  app_error.o(i.app_error_fault_handler)
    app_error_handler_bare                   0x0001c5c5   Thumb Code    18  app_error.o(i.app_error_handler_bare)
    app_fifo_get                             0x0001c5e9   Thumb Code    22  app_fifo.o(i.app_fifo_get)
    app_fifo_init                            0x0001c5ff   Thumb Code    36  app_fifo.o(i.app_fifo_init)
    app_fifo_put                             0x0001c623   Thumb Code    26  app_fifo.o(i.app_fifo_put)
    app_uart_get                             0x0001c689   Thumb Code    44  app_uart_fifo.o(i.app_uart_get)
    app_uart_init                            0x0001c6bd   Thumb Code   144  app_uart_fifo.o(i.app_uart_init)
    app_uart_put                             0x0001c75d   Thumb Code    30  app_uart_fifo.o(i.app_uart_put)
    ble_advdata_set                          0x0001c785   Thumb Code   104  ble_advdata.o(i.ble_advdata_set)
    ble_advertising_init                     0x0001c7ed   Thumb Code   284  ble_advertising.o(i.ble_advertising_init)
    ble_advertising_on_ble_evt               0x0001c911   Thumb Code   118  ble_advertising.o(i.ble_advertising_on_ble_evt)
    ble_advertising_on_sys_evt               0x0001c98d   Thumb Code    42  ble_advertising.o(i.ble_advertising_on_sys_evt)
    ble_advertising_start                    0x0001c9cd   Thumb Code   470  ble_advertising.o(i.ble_advertising_start)
    ble_multi_data_send                      0x0001cc21   Thumb Code    70  main.o(i.ble_multi_data_send)
    bond_data_load                           0x0001cce5   Thumb Code    58  device_manager_peripheral.o(i.bond_data_load)
    buffers_init                             0x0001cd2d   Thumb Code   108  main.o(i.buffers_init)
    compress                                 0x0001d01d   Thumb Code   132  main.o(i.compress)
    dm_ble_evt_handler                       0x0001d5cd   Thumb Code   968  device_manager_peripheral.o(i.dm_ble_evt_handler)
    dm_handle_initialize                     0x0001d9a5   Thumb Code    22  device_manager_peripheral.o(i.dm_handle_initialize)
    dm_init                                  0x0001d9c1   Thumb Code   176  device_manager_peripheral.o(i.dm_init)
    dm_register                              0x0001dbe1   Thumb Code   104  device_manager_peripheral.o(i.dm_register)
    eTaskConfirmSleepModeStatus              0x0001dc55   Thumb Code    24  tasks.o(i.eTaskConfirmSleepModeStatus)
    fputc                                    0x0001ddd9   Thumb Code    14  retarget.o(i.fputc)
    heatshrink_encoder_finish                0x0001e011   Thumb Code    40  heatshrink_encoder.o(i.heatshrink_encoder_finish)
    heatshrink_encoder_poll                  0x0001e039   Thumb Code   446  heatshrink_encoder.o(i.heatshrink_encoder_poll)
    heatshrink_encoder_reset                 0x0001e1fd   Thumb Code    40  heatshrink_encoder.o(i.heatshrink_encoder_reset)
    heatshrink_encoder_sink                  0x0001e229   Thumb Code    90  heatshrink_encoder.o(i.heatshrink_encoder_sink)
    intan_setup                              0x0001e28d   Thumb Code   190  main.o(i.intan_setup)
    intern_softdevice_events_execute         0x0001e355   Thumb Code   110  softdevice_handler.o(i.intern_softdevice_events_execute)
    main                                     0x0001e4b5   Thumb Code   474  main.o(i.main)
    malloc                                   0x0001e7dd   Thumb Code    92  malloc.o(i.malloc)
    nrf_delay_ms                             0x0001e95d   Thumb Code    24  nrf_delay.o(i.nrf_delay_ms)
    nrf_drv_clock_lfclk_request              0x0001e979   Thumb Code    12  nrf_drv_clock.o(i.nrf_drv_clock_lfclk_request)
    nrf_drv_clock_on_soc_event               0x0001e985   Thumb Code    30  nrf_drv_clock.o(i.nrf_drv_clock_on_soc_event)
    nrf_drv_common_irq_enable                0x0001e9a9   Thumb Code    78  nrf_drv_common.o(i.nrf_drv_common_irq_enable)
    nrf_drv_spi_init                         0x0001ea09   Thumb Code   270  nrf_drv_spi.o(i.nrf_drv_spi_init)
    nrf_drv_spi_transfer                     0x0001eb29   Thumb Code    24  nrf_drv_spi.o(i.nrf_drv_spi_transfer)
    nrf_drv_spi_uninit                       0x0001eb41   Thumb Code    62  nrf_drv_spi.o(i.nrf_drv_spi_uninit)
    nrf_drv_spi_xfer                         0x0001eb89   Thumb Code    98  nrf_drv_spi.o(i.nrf_drv_spi_xfer)
    nrf_drv_uart_init                        0x0001ebf5   Thumb Code   170  nrf_drv_uart.o(i.nrf_drv_uart_init)
    nrf_drv_uart_rx                          0x0001ecbd   Thumb Code    66  nrf_drv_uart.o(i.nrf_drv_uart_rx)
    nrf_drv_uart_rx_enable                   0x0001ed09   Thumb Code    20  nrf_drv_uart.o(i.nrf_drv_uart_rx_enable)
    nrf_drv_uart_tx                          0x0001edbd   Thumb Code    28  nrf_drv_uart.o(i.nrf_drv_uart_tx)
    pstorage_access_status_get               0x0001f505   Thumb Code    30  pstorage.o(i.pstorage_access_status_get)
    pstorage_block_identifier_get            0x0001f52d   Thumb Code    74  pstorage.o(i.pstorage_block_identifier_get)
    pstorage_clear                           0x0001f581   Thumb Code   156  pstorage.o(i.pstorage_clear)
    pstorage_init                            0x0001f655   Thumb Code    68  pstorage.o(i.pstorage_init)
    pstorage_load                            0x0001f6a1   Thumb Code   158  pstorage.o(i.pstorage_load)
    pstorage_register                        0x0001f749   Thumb Code   180  pstorage.o(i.pstorage_register)
    pstorage_store                           0x0001f805   Thumb Code   134  pstorage.o(i.pstorage_store)
    pstorage_sys_event_handler               0x0001f895   Thumb Code    72  pstorage.o(i.pstorage_sys_event_handler)
    pstorage_update                          0x0001f8e1   Thumb Code   134  pstorage.o(i.pstorage_update)
    pvPortMalloc                             0x0001f9fd   Thumb Code    68  heap_1.o(i.pvPortMalloc)
    pvTaskIncrementMutexHeldCount            0x0001fa4d   Thumb Code    20  tasks.o(i.pvTaskIncrementMutexHeldCount)
    pxPortInitialiseStack                    0x0001fa65   Thumb Code    28  port_cmsis.o(i.pxPortInitialiseStack)
    sample_data                              0x0001faf9   Thumb Code    60  main.o(i.sample_data)
    sd_check_ram_start                       0x0001fb39   Thumb Code    10  softdevice_handler.o(i.sd_check_ram_start)
    softdevice_ble_evt_handler_set           0x0001fd3d   Thumb Code    16  softdevice_handler.o(i.softdevice_ble_evt_handler_set)
    softdevice_enable                        0x0001fd51   Thumb Code    14  softdevice_handler.o(i.softdevice_enable)
    softdevice_enable_get_default_config     0x0001fd65   Thumb Code    40  softdevice_handler.o(i.softdevice_enable_get_default_config)
    softdevice_fault_handler                 0x0001fd8d   Thumb Code     8  softdevice_handler.o(i.softdevice_fault_handler)
    softdevice_handler_init                  0x0001fd95   Thumb Code    40  softdevice_handler.o(i.softdevice_handler_init)
    softdevice_handler_isEnabled             0x0001fdc5   Thumb Code     6  softdevice_handler.o(i.softdevice_handler_isEnabled)
    softdevice_sys_evt_handler_set           0x0001fdd1   Thumb Code    16  softdevice_handler.o(i.softdevice_sys_evt_handler_set)
    spi_master_0_event_handler               0x0001fded   Thumb Code   120  main.o(i.spi_master_0_event_handler)
    uart_event_handle                        0x0002024d   Thumb Code    44  main.o(i.uart_event_handle)
    uxListRemove                             0x000205df   Thumb Code    36  list.o(i.uxListRemove)
    vListInitialise                          0x00020603   Thumb Code    22  list.o(i.vListInitialise)
    vListInitialiseItem                      0x00020619   Thumb Code     6  list.o(i.vListInitialiseItem)
    vListInsert                              0x0002061f   Thumb Code    48  list.o(i.vListInsert)
    vListInsertEnd                           0x0002064f   Thumb Code    24  list.o(i.vListInsertEnd)
    vPortEnterCritical                       0x000206e5   Thumb Code    16  port_cmsis.o(i.vPortEnterCritical)
    vPortExitCritical                        0x000206f9   Thumb Code    64  port_cmsis.o(i.vPortExitCritical)
    vPortFree                                0x00020741   Thumb Code     2  heap_1.o(i.vPortFree)
    vPortSafeTaskSwitchContext               0x00020763   Thumb Code   108  port_cmsis.o(i.vPortSafeTaskSwitchContext)
    vPortSetupTimerInterrupt                 0x000207d1   Thumb Code    54  port_cmsis_systick.o(i.vPortSetupTimerInterrupt)
    vPortSuppressTicksAndSleep               0x0002081d   Thumb Code   126  port_cmsis_systick.o(i.vPortSuppressTicksAndSleep)
    vPortTaskYield                           0x000208b1   Thumb Code    34  port_cmsis.o(i.vPortTaskYield)
    vQueueAddToRegistry                      0x000208dd   Thumb Code    32  queue.o(i.vQueueAddToRegistry)
    vQueueWaitForMessageRestricted           0x00020901   Thumb Code    56  queue.o(i.vQueueWaitForMessageRestricted)
    vTaskMissedYield                         0x00020939   Thumb Code     8  tasks.o(i.vTaskMissedYield)
    vTaskPlaceOnEventList                    0x00020945   Thumb Code    66  tasks.o(i.vTaskPlaceOnEventList)
    vTaskPlaceOnEventListRestricted          0x00020991   Thumb Code    50  tasks.o(i.vTaskPlaceOnEventListRestricted)
    vTaskPriorityInherit                     0x000209c9   Thumb Code   120  tasks.o(i.vTaskPriorityInherit)
    vTaskSetTimeOutState                     0x00020a49   Thumb Code    12  tasks.o(i.vTaskSetTimeOutState)
    vTaskStartScheduler                      0x00020a59   Thumb Code    58  tasks.o(i.vTaskStartScheduler)
    vTaskStepTick                            0x00020aa5   Thumb Code    10  tasks.o(i.vTaskStepTick)
    vTaskSuspendAll                          0x00020ab5   Thumb Code    10  tasks.o(i.vTaskSuspendAll)
    vTaskSwitchContext                       0x00020ac5   Thumb Code   100  tasks.o(i.vTaskSwitchContext)
    xPortStartScheduler                      0x00020b41   Thumb Code    48  port_cmsis.o(i.xPortStartScheduler)
    xQueueGenericCreate                      0x00020b79   Thumb Code    62  queue.o(i.xQueueGenericCreate)
    xQueueGenericReceive                     0x00020bb7   Thumb Code   272  queue.o(i.xQueueGenericReceive)
    xQueueGenericReset                       0x00020cc7   Thumb Code    98  queue.o(i.xQueueGenericReset)
    xQueueGenericSend                        0x00020d29   Thumb Code   222  queue.o(i.xQueueGenericSend)
    xQueueGenericSendFromISR                 0x00020e07   Thumb Code    96  queue.o(i.xQueueGenericSendFromISR)
    xTaskCheckForTimeOut                     0x00020e69   Thumb Code    66  tasks.o(i.xTaskCheckForTimeOut)
    xTaskGenericCreate                       0x00020eb1   Thumb Code   342  tasks.o(i.xTaskGenericCreate)
    xTaskGetSchedulerState                   0x00021011   Thumb Code    26  tasks.o(i.xTaskGetSchedulerState)
    xTaskGetTickCount                        0x00021031   Thumb Code     6  tasks.o(i.xTaskGetTickCount)
    xTaskGetTickCountFromISR                 0x0002103d   Thumb Code     6  tasks.o(i.xTaskGetTickCountFromISR)
    xTaskIncrementTick                       0x00021049   Thumb Code   156  tasks.o(i.xTaskIncrementTick)
    xTaskPriorityDisinherit                  0x000210ed   Thumb Code   104  tasks.o(i.xTaskPriorityDisinherit)
    xTaskRemoveFromEventList                 0x0002115d   Thumb Code    92  tasks.o(i.xTaskRemoveFromEventList)
    xTaskResumeAll                           0x000211c1   Thumb Code   150  tasks.o(i.xTaskResumeAll)
    xTimerCreate                             0x00021261   Thumb Code    56  timers.o(i.xTimerCreate)
    xTimerCreateTimerTask                    0x00021299   Thumb Code    52  timers.o(i.xTimerCreateTimerTask)
    xTimerGenericCommand                     0x000212dd   Thumb Code    72  timers.o(i.xTimerGenericCommand)
    m_service_context_store                  0x000213c4   Data          16  device_manager_peripheral.o(.constdata)
    m_service_context_load                   0x000213d4   Data          16  device_manager_peripheral.o(.constdata)
    m_service_context_apply                  0x000213e4   Data          16  device_manager_peripheral.o(.constdata)
    Region$$Table$$Base                      0x00021470   Number         0  anon$$obj.o(Region$$Table)
    Region$$Table$$Limit                     0x00021490   Number         0  anon$$obj.o(Region$$Table)
    Image$$RW_IRAM1$$Base                    0x20001f00   Number         0  anon$$obj.o ABSOLUTE
    ADC_bias                                 0x20001f1c   Data           4  main.o(.data)
    MUX_bias                                 0x20001f20   Data           4  main.o(.data)
    ADC_twoscomp                             0x20001f24   Data           4  main.o(.data)
    RH1_DAC1                                 0x20001f28   Data           4  main.o(.data)
    RH1_DAC2                                 0x20001f2c   Data           4  main.o(.data)
    RH2_DAC1                                 0x20001f30   Data           4  main.o(.data)
    RH2_DAC2                                 0x20001f34   Data           4  main.o(.data)
    RL_DAC1                                  0x20001f38   Data           4  main.o(.data)
    RL_DAC2                                  0x20001f3c   Data           4  main.o(.data)
    RL_DAC3                                  0x20001f40   Data           4  main.o(.data)
    __stdout                                 0x20001ff4   Data           4  retarget.o(.data)
    pxCurrentTCB                             0x20002030   Data           4  tasks.o(.data)
    SystemCoreClock                          0x2000206c   Data           4  system_nrf51.o(.data)
    __microlib_freelist                      0x20002070   Data           4  mvars.o(.data)
    __microlib_freelist_initialised          0x20002074   Data           4  mvars.o(.data)
    xQueueRegistry                           0x20002c28   Data          16  queue.o(.bss)
    __heap_base                              0x20003d00   Data           0  arm_startup_nrf51.o(HEAP)
    __heap_limit                             0x20004500   Data           0  arm_startup_nrf51.o(HEAP)
    __initial_sp                             0x20004d00   Data           0  arm_startup_nrf51.o(STACK)



==============================================================================

Memory Map of the image

  Image Entry point : 0x0001b0c1

  Load Region LR_IROM1 (Base: 0x0001b000, Size: 0x00006608, Max: 0x00025000, ABSOLUTE, COMPRESSED[0x000064d8])

    Execution Region ER_IROM1 (Base: 0x0001b000, Size: 0x00006490, Max: 0x00025000, ABSOLUTE)

    Base Addr    Size         Type   Attr      Idx    E Section Name        Object

    0x0001b000   0x000000c0   Data   RO         3663    RESET               arm_startup_nrf51.o
    0x0001b0c0   0x00000000   Code   RO         3705  * .ARM.Collect$$$$00000000  mc_p.l(entry.o)
    0x0001b0c0   0x00000004   Code   RO         4017    .ARM.Collect$$$$00000001  mc_p.l(entry2.o)
    0x0001b0c4   0x00000004   Code   RO         4020    .ARM.Collect$$$$00000004  mc_p.l(entry5.o)
    0x0001b0c8   0x00000000   Code   RO         4022    .ARM.Collect$$$$00000008  mc_p.l(entry7b.o)
    0x0001b0c8   0x00000000   Code   RO         4024    .ARM.Collect$$$$0000000A  mc_p.l(entry8b.o)
    0x0001b0c8   0x00000008   Code   RO         4025    .ARM.Collect$$$$0000000B  mc_p.l(entry9a.o)
    0x0001b0d0   0x00000000   Code   RO         4027    .ARM.Collect$$$$0000000D  mc_p.l(entry10a.o)
    0x0001b0d0   0x00000000   Code   RO         4029    .ARM.Collect$$$$0000000F  mc_p.l(entry11a.o)
    0x0001b0d0   0x00000004   Code   RO         4018    .ARM.Collect$$$$00002712  mc_p.l(entry2.o)
    0x0001b0d4   0x0000001e   Code   RO          978    .emb_text           nrf_delay.o
    0x0001b0f2   0x00000002   PAD
    0x0001b0f4   0x0000006c   Code   RO         3302    .emb_text           port.o
    0x0001b160   0x00000038   Code   RO         3664    .text               arm_startup_nrf51.o
    0x0001b198   0x0000002c   Code   RO         3708    .text               mc_p.l(uidiv.o)
    0x0001b1c4   0x00000028   Code   RO         3710    .text               mc_p.l(idiv.o)
    0x0001b1ec   0x00000040   Code   RO         3714    .text               mc_p.l(memmovea.o)
    0x0001b22c   0x00000024   Code   RO         3716    .text               mc_p.l(memseta.o)
    0x0001b250   0x0000000e   Code   RO         3718    .text               mc_p.l(strlen.o)
    0x0001b25e   0x0000001a   Code   RO         3720    .text               mc_p.l(memcmp.o)
    0x0001b278   0x00000060   Code   RO         4031    .text               mc_p.l(uldiv.o)
    0x0001b2d8   0x00000000   Code   RO         4035    .text               mc_p.l(iusefp.o)
    0x0001b2d8   0x00000164   Code   RO         4036    .text               mf_p.l(dadd.o)
    0x0001b43c   0x000000d0   Code   RO         4038    .text               mf_p.l(dmul.o)
    0x0001b50c   0x000000f0   Code   RO         4040    .text               mf_p.l(ddiv.o)
    0x0001b5fc   0x00000040   Code   RO         4042    .text               mf_p.l(dfixul.o)
    0x0001b63c   0x00000028   Code   RO         4044    .text               mf_p.l(cdrcmple.o)
    0x0001b664   0x00000024   Code   RO         4046    .text               mc_p.l(init.o)
    0x0001b688   0x00000020   Code   RO         4048    .text               mc_p.l(llshl.o)
    0x0001b6a8   0x00000022   Code   RO         4050    .text               mc_p.l(llushr.o)
    0x0001b6ca   0x00000026   Code   RO         4052    .text               mc_p.l(llsshr.o)
    0x0001b6f0   0x000000be   Code   RO         4054    .text               mf_p.l(depilogue.o)
    0x0001b7ae   0x00000056   Code   RO         4066    .text               mc_p.l(__dczerorl2.o)
    0x0001b804   0x00000108   Code   RO         1036    i.GPIOTE_IRQHandler  nrf_drv_gpiote.o
    0x0001b90c   0x000000ac   Code   RO         3245    i.RTC1_IRQHandler   port_cmsis_systick.o
    0x0001b9b8   0x00000038   Code   RO         1633    i.SPI0_TWI0_IRQHandler  nrf_drv_spi.o
    0x0001b9f0   0x00000020   Code   RO         2471    i.SWI2_IRQHandler   softdevice_handler.o
    0x0001ba10   0x00000054   Code   RO         3671    i.SystemInit        system_nrf51.o
    0x0001ba64   0x00000008   Code   RO         1226    i.UART0_IRQHandler  nrf_drv_uart.o
    0x0001ba6c   0x00000020   Code   RO         3961    i.__0printf         mc_p.l(printfa.o)
    0x0001ba8c   0x0000002e   Code   RO         4056    i.__ARM_clz         mf_p.l(depilogue.o)
    0x0001baba   0x0000001a   Code   RO          701    i.__ARM_common_switch8  ble_srv_common.o
    0x0001bad4   0x0000000e   Code   RO         4060    i.__scatterload_copy  mc_p.l(handlers.o)
    0x0001bae2   0x00000002   Code   RO         4061    i.__scatterload_null  mc_p.l(handlers.o)
    0x0001bae4   0x0000000e   Code   RO         4062    i.__scatterload_zeroinit  mc_p.l(handlers.o)
    0x0001baf2   0x00000002   PAD
    0x0001baf4   0x00000158   Code   RO         3968    i._fp_digits        mc_p.l(printfa.o)
    0x0001bc4c   0x000006ec   Code   RO         3969    i._printf_core      mc_p.l(printfa.o)
    0x0001c338   0x00000020   Code   RO         3970    i._printf_post_padding  mc_p.l(printfa.o)
    0x0001c358   0x0000002c   Code   RO         3971    i._printf_pre_padding  mc_p.l(printfa.o)
    0x0001c384   0x0000000c   Code   RO         2604    i.add_tag_bit       heatshrink_encoder.o
    0x0001c390   0x00000216   Code   RO          511    i.adv_data_encode   ble_advdata.o
    0x0001c5a6   0x00000002   PAD
    0x0001c5a8   0x0000001c   Code   RO         2125    i.app_error_fault_handler  app_error.o
    0x0001c5c4   0x00000018   Code   RO         2127    i.app_error_handler_bare  app_error.o
    0x0001c5dc   0x0000000c   Code   RO          708    i.app_evt_notify    device_manager_peripheral.o
    0x0001c5e8   0x00000016   Code   RO         2412    i.app_fifo_get      app_fifo.o
    0x0001c5fe   0x00000024   Code   RO         2413    i.app_fifo_init     app_fifo.o
    0x0001c622   0x0000001a   Code   RO         2414    i.app_fifo_put      app_fifo.o
    0x0001c63c   0x0000002c   Code   RO         1388    i.app_notify        pstorage.o
    0x0001c668   0x00000020   Code   RO         1389    i.app_notify_error_state_transit  pstorage.o
    0x0001c688   0x00000034   Code   RO         1909    i.app_uart_get      app_uart_fifo.o
    0x0001c6bc   0x000000a0   Code   RO         1910    i.app_uart_init     app_uart_fifo.o
    0x0001c75c   0x00000028   Code   RO         1911    i.app_uart_put      app_uart_fifo.o
    0x0001c784   0x00000068   Code   RO          512    i.ble_advdata_set   ble_advdata.o
    0x0001c7ec   0x00000124   Code   RO          431    i.ble_advertising_init  ble_advertising.o
    0x0001c910   0x0000007c   Code   RO          432    i.ble_advertising_on_ble_evt  ble_advertising.o
    0x0001c98c   0x00000030   Code   RO          433    i.ble_advertising_on_sys_evt  ble_advertising.o
    0x0001c9bc   0x00000010   Code   RO          435    i.ble_advertising_peer_address_clear  ble_advertising.o
    0x0001c9cc   0x000001e0   Code   RO          437    i.ble_advertising_start  ble_advertising.o
    0x0001cbac   0x0000005e   Code   RO          513    i.ble_device_addr_encode  ble_advdata.o
    0x0001cc0a   0x00000016   Code   RO            8    i.ble_evt_dispatch  main.o
    0x0001cc20   0x0000004c   Code   RO            9    i.ble_multi_data_send  main.o
    0x0001cc6c   0x00000078   Code   RO           10    i.ble_stack_init    main.o
    0x0001cce4   0x00000048   Code   RO          709    i.bond_data_load    device_manager_peripheral.o
    0x0001cd2c   0x000000c4   Code   RO           12    i.buffers_init      main.o
    0x0001cdf0   0x00000012   Code   RO         2605    i.can_take_byte     heatshrink_encoder.o
    0x0001ce02   0x00000002   PAD
    0x0001ce04   0x00000010   Code   RO         1039    i.channel_port_get  nrf_drv_gpiote.o
    0x0001ce14   0x00000104   Code   RO         1390    i.clear_operation_execute  pstorage.o
    0x0001cf18   0x00000024   Code   RO         1391    i.clear_post_processing_run  pstorage.o
    0x0001cf3c   0x00000038   Code   RO         1392    i.cmd_process       pstorage.o
    0x0001cf74   0x00000020   Code   RO         1393    i.cmd_queue_element_init  pstorage.o
    0x0001cf94   0x0000004c   Code   RO         1394    i.cmd_queue_enqueue  pstorage.o
    0x0001cfe0   0x0000003c   Code   RO         1395    i.command_end_procedure_run  pstorage.o
    0x0001d01c   0x000000bc   Code   RO           13    i.compress          main.o
    0x0001d0d8   0x00000064   Code   RO           14    i.compress_task     main.o
    0x0001d13c   0x00000088   Code   RO          514    i.conn_int_encode   ble_advdata.o
    0x0001d1c4   0x00000030   Code   RO          710    i.connection_instance_find  device_manager_peripheral.o
    0x0001d1f4   0x00000024   Code   RO          711    i.connection_instance_init  device_manager_peripheral.o
    0x0001d218   0x00000044   Code   RO         3159    i.current_int_priority_get  port_cmsis.o
    0x0001d25c   0x00000044   Code   RO         3246    i.current_int_priority_get  port_cmsis_systick.o
    0x0001d2a0   0x00000044   Code   RO         3320    i.current_int_priority_get  tasks.o
    0x0001d2e4   0x00000054   Code   RO         1396    i.data_page_erase_state_run  pstorage.o
    0x0001d338   0x00000074   Code   RO           15    i.data_send         main.o
    0x0001d3ac   0x00000028   Code   RO         1397    i.data_to_swap_write_state_run  pstorage.o
    0x0001d3d4   0x000000b0   Code   RO          712    i.device_context_store  device_manager_peripheral.o
    0x0001d484   0x00000054   Code   RO          713    i.device_instance_allocate  device_manager_peripheral.o
    0x0001d4d8   0x00000048   Code   RO          714    i.device_instance_find  device_manager_peripheral.o
    0x0001d520   0x0000002c   Code   RO          715    i.device_instance_free  device_manager_peripheral.o
    0x0001d54c   0x00000024   Code   RO           16    i.device_manager_evt_handler  main.o
    0x0001d570   0x0000005c   Code   RO           17    i.device_manager_init  main.o
    0x0001d5cc   0x000003d8   Code   RO          720    i.dm_ble_evt_handler  device_manager_peripheral.o
    0x0001d9a4   0x0000001c   Code   RO          726    i.dm_handle_initialize  device_manager_peripheral.o
    0x0001d9c0   0x000000c0   Code   RO          727    i.dm_init           device_manager_peripheral.o
    0x0001da80   0x00000160   Code   RO          730    i.dm_pstorage_cb_handler  device_manager_peripheral.o
    0x0001dbe0   0x00000074   Code   RO          731    i.dm_register       device_manager_peripheral.o
    0x0001dc54   0x00000020   Code   RO         3321    i.eTaskConfirmSleepModeStatus  tasks.o
    0x0001dc74   0x00000014   Code   RO         2417    i.fifo_get          app_fifo.o
    0x0001dc88   0x00000012   Code   RO         2418    i.fifo_put          app_fifo.o
    0x0001dc9a   0x00000002   PAD
    0x0001dc9c   0x00000088   Code   RO         2606    i.find_longest_match  heatshrink_encoder.o
    0x0001dd24   0x00000020   Code   RO         1398    i.flash_api_err_code_process  pstorage.o
    0x0001dd44   0x00000080   Code   RO         1399    i.flash_operation_success_run  pstorage.o
    0x0001ddc4   0x0000000a   Code   RO         1400    i.flash_page_erase  pstorage.o
    0x0001ddce   0x0000000a   Code   RO         1401    i.flash_write       pstorage.o
    0x0001ddd8   0x0000000e   Code   RO         2293    i.fputc             retarget.o
    0x0001dde6   0x00000004   Code   RO          738    i.gattc_context_apply  device_manager_peripheral.o
    0x0001ddea   0x00000004   Code   RO          739    i.gattc_context_load  device_manager_peripheral.o
    0x0001ddee   0x00000004   Code   RO          740    i.gattc_context_store  device_manager_peripheral.o
    0x0001ddf2   0x00000002   PAD
    0x0001ddf4   0x000000b0   Code   RO          741    i.gatts_context_apply  device_manager_peripheral.o
    0x0001dea4   0x00000030   Code   RO          742    i.gatts_context_load  device_manager_peripheral.o
    0x0001ded4   0x000000ac   Code   RO          743    i.gatts_context_store  device_manager_peripheral.o
    0x0001df80   0x00000008   Code   RO          744    i.gattsc_context_apply  device_manager_peripheral.o
    0x0001df88   0x00000008   Code   RO          745    i.gattsc_context_load  device_manager_peripheral.o
    0x0001df90   0x00000008   Code   RO          746    i.gattsc_context_store  device_manager_peripheral.o
    0x0001df98   0x00000078   Code   RO         1402    i.head_restore_state_run  pstorage.o
    0x0001e010   0x00000028   Code   RO         2607    i.heatshrink_encoder_finish  heatshrink_encoder.o
    0x0001e038   0x000001c4   Code   RO         2608    i.heatshrink_encoder_poll  heatshrink_encoder.o
    0x0001e1fc   0x0000002c   Code   RO         2609    i.heatshrink_encoder_reset  heatshrink_encoder.o
    0x0001e228   0x00000064   Code   RO         2610    i.heatshrink_encoder_sink  heatshrink_encoder.o
    0x0001e28c   0x000000c8   Code   RO           18    i.intan_setup       main.o
    0x0001e354   0x00000074   Code   RO         2472    i.intern_softdevice_events_execute  softdevice_handler.o
    0x0001e3c8   0x00000048   Code   RO         3672    i.is_manual_peripheral_setup_needed  system_nrf51.o
    0x0001e410   0x00000044   Code   RO         1403    i.is_page_erase_required  pstorage.o
    0x0001e454   0x0000000c   Code   RO         1404    i.is_word_aligned   pstorage.o
    0x0001e460   0x00000054   Code   RO          515    i.le_role_encode    ble_advdata.o
    0x0001e4b4   0x00000310   Code   RO           19    i.main              main.o
    0x0001e7c4   0x00000018   Code   RO         1405    i.main_state_err_busy_process  pstorage.o
    0x0001e7dc   0x0000006c   Code   RO         3990    i.malloc            mc_p.l(malloc.o)
    0x0001e848   0x00000068   Code   RO          516    i.manuf_specific_data_encode  ble_advdata.o
    0x0001e8b0   0x0000009e   Code   RO          517    i.name_encode       ble_advdata.o
    0x0001e94e   0x00000004   Code   RO          747    i.no_service_context_apply  device_manager_peripheral.o
    0x0001e952   0x00000004   Code   RO          748    i.no_service_context_load  device_manager_peripheral.o
    0x0001e956   0x00000004   Code   RO          749    i.no_service_context_store  device_manager_peripheral.o
    0x0001e95a   0x00000002   PAD
    0x0001e95c   0x0000001c   Code   RO          979    i.nrf_delay_ms      nrf_delay.o
    0x0001e978   0x0000000c   Code   RO         1724    i.nrf_drv_clock_lfclk_request  nrf_drv_clock.o
    0x0001e984   0x00000024   Code   RO         1725    i.nrf_drv_clock_on_soc_event  nrf_drv_clock.o
    0x0001e9a8   0x00000060   Code   RO         1006    i.nrf_drv_common_irq_enable  nrf_drv_common.o
    0x0001ea08   0x00000120   Code   RO         1634    i.nrf_drv_spi_init  nrf_drv_spi.o
    0x0001eb28   0x00000018   Code   RO         1635    i.nrf_drv_spi_transfer  nrf_drv_spi.o
    0x0001eb40   0x00000048   Code   RO         1636    i.nrf_drv_spi_uninit  nrf_drv_spi.o
    0x0001eb88   0x0000006c   Code   RO         1637    i.nrf_drv_spi_xfer  nrf_drv_spi.o
    0x0001ebf4   0x000000c8   Code   RO         1228    i.nrf_drv_uart_init  nrf_drv_uart.o
    0x0001ecbc   0x0000004c   Code   RO         1229    i.nrf_drv_uart_rx   nrf_drv_uart.o
    0x0001ed08   0x00000018   Code   RO         1232    i.nrf_drv_uart_rx_enable  nrf_drv_uart.o
    0x0001ed20   0x0000009c   Code   RO         1233    i.nrf_drv_uart_rx_for_uart  nrf_drv_uart.o
    0x0001edbc   0x00000020   Code   RO         1234    i.nrf_drv_uart_tx   nrf_drv_uart.o
    0x0001eddc   0x00000074   Code   RO         1236    i.nrf_drv_uart_tx_for_uart  nrf_drv_uart.o
    0x0001ee50   0x00000024   Code   RO         1238    i.nrf_gpio_cfg      nrf_drv_uart.o
    0x0001ee74   0x00000024   Code   RO         1638    i.nrf_gpio_cfg      nrf_drv_spi.o
    0x0001ee98   0x00000012   Code   RO         1240    i.nrf_gpio_cfg_input  nrf_drv_uart.o
    0x0001eeaa   0x00000014   Code   RO         1241    i.nrf_gpio_cfg_output  nrf_drv_uart.o
    0x0001eebe   0x00000014   Code   RO         1639    i.nrf_gpio_cfg_output  nrf_drv_spi.o
    0x0001eed2   0x00000002   PAD
    0x0001eed4   0x00000020   Code   RO         1061    i.nrf_gpio_cfg_sense_set  nrf_drv_gpiote.o
    0x0001eef4   0x00000010   Code   RO         1640    i.nrf_gpio_pin_set  nrf_drv_spi.o
    0x0001ef04   0x00000014   Code   RO         1062    i.nrf_gpiote_event_is_set  nrf_drv_gpiote.o
    0x0001ef18   0x0000000a   Code   RO         1242    i.nrf_uart_event_check  nrf_drv_uart.o
    0x0001ef22   0x00000010   Code   RO         1243    i.nrf_uart_int_enable_check  nrf_drv_uart.o
    0x0001ef32   0x00000012   Code   RO           20    i.on_adv_evt        main.o
    0x0001ef44   0x00000100   Code   RO           21    i.on_ble_evt        main.o
    0x0001f044   0x00000016   Code   RO          439    i.peer_address_exists  ble_advertising.o
    0x0001f05a   0x00000002   PAD
    0x0001f05c   0x00000038   Code   RO          750    i.peer_instance_init  device_manager_peripheral.o
    0x0001f094   0x00000034   Code   RO         3324    i.prvAddCurrentTaskToDelayedList  tasks.o
    0x0001f0c8   0x00000050   Code   RO         3007    i.prvCheckForValidListAndQueue  timers.o
    0x0001f118   0x00000058   Code   RO         3325    i.prvCheckTasksWaitingTermination  tasks.o
    0x0001f170   0x00000026   Code   RO         2826    i.prvCopyDataFromQueue  queue.o
    0x0001f196   0x00000076   Code   RO         2827    i.prvCopyDataToQueue  queue.o
    0x0001f20c   0x00000028   Code   RO         3326    i.prvGetExpectedIdleTime  tasks.o
    0x0001f234   0x00000034   Code   RO         3327    i.prvIdleTask       tasks.o
    0x0001f268   0x00000038   Code   RO         3008    i.prvInsertTimerInActiveList  timers.o
    0x0001f2a0   0x000000a8   Code   RO         3009    i.prvProcessReceivedCommands  timers.o
    0x0001f348   0x00000084   Code   RO         3010    i.prvProcessTimerOrBlockTask  timers.o
    0x0001f3cc   0x00000020   Code   RO         3328    i.prvResetNextTaskUnblockTime  tasks.o
    0x0001f3ec   0x00000028   Code   RO         3011    i.prvSampleTimeNow  timers.o
    0x0001f414   0x00000058   Code   RO         3012    i.prvSwitchTimerLists  timers.o
    0x0001f46c   0x00000006   Code   RO         3160    i.prvTaskExitError  port_cmsis.o
    0x0001f472   0x00000002   PAD
    0x0001f474   0x00000024   Code   RO         3013    i.prvTimerTask      timers.o
    0x0001f498   0x0000006a   Code   RO         2828    i.prvUnlockQueue    queue.o
    0x0001f502   0x00000002   PAD
    0x0001f504   0x00000028   Code   RO         1406    i.pstorage_access_status_get  pstorage.o
    0x0001f52c   0x00000054   Code   RO         1407    i.pstorage_block_identifier_get  pstorage.o
    0x0001f580   0x000000a4   Code   RO         1408    i.pstorage_clear    pstorage.o
    0x0001f624   0x00000024   Code   RO         1409    i.pstorage_flash_page_end  pstorage.o
    0x0001f648   0x0000000a   Code   RO         1410    i.pstorage_flash_page_size  pstorage.o
    0x0001f652   0x00000002   PAD
    0x0001f654   0x0000004c   Code   RO         1411    i.pstorage_init     pstorage.o
    0x0001f6a0   0x000000a8   Code   RO         1412    i.pstorage_load     pstorage.o
    0x0001f748   0x000000bc   Code   RO         1413    i.pstorage_register  pstorage.o
    0x0001f804   0x00000090   Code   RO         1414    i.pstorage_store    pstorage.o
    0x0001f894   0x0000004c   Code   RO         1415    i.pstorage_sys_event_handler  pstorage.o
    0x0001f8e0   0x00000090   Code   RO         1416    i.pstorage_update   pstorage.o
    0x0001f970   0x00000058   Code   RO         2611    i.push_bits         heatshrink_encoder.o
    0x0001f9c8   0x00000032   Code   RO         2612    i.push_outgoing_bits  heatshrink_encoder.o
    0x0001f9fa   0x00000002   PAD
    0x0001f9fc   0x00000050   Code   RO         3118    i.pvPortMalloc      heap_1.o
    0x0001fa4c   0x00000018   Code   RO         3330    i.pvTaskIncrementMutexHeldCount  tasks.o
    0x0001fa64   0x00000024   Code   RO         3161    i.pxPortInitialiseStack  port_cmsis.o
    0x0001fa88   0x00000038   Code   RO         1244    i.rx_byte           nrf_drv_uart.o
    0x0001fac0   0x0000001c   Code   RO         1245    i.rx_done_event     nrf_drv_uart.o
    0x0001fadc   0x0000001c   Code   RO         1246    i.rx_enable         nrf_drv_uart.o
    0x0001faf8   0x00000040   Code   RO           22    i.sample_data       main.o
    0x0001fb38   0x00000010   Code   RO         2473    i.sd_check_ram_start  softdevice_handler.o
    0x0001fb48   0x0000008e   Code   RO          518    i.service_data_encode  ble_advdata.o
    0x0001fbd6   0x00000002   PAD
    0x0001fbd8   0x0000011c   Code   RO           23    i.services_init     main.o
    0x0001fcf4   0x00000048   Code   RO         1417    i.sm_state_change   pstorage.o
    0x0001fd3c   0x00000014   Code   RO         2474    i.softdevice_ble_evt_handler_set  softdevice_handler.o
    0x0001fd50   0x00000014   Code   RO         2475    i.softdevice_enable  softdevice_handler.o
    0x0001fd64   0x00000028   Code   RO         2476    i.softdevice_enable_get_default_config  softdevice_handler.o
    0x0001fd8c   0x00000008   Code   RO         2477    i.softdevice_fault_handler  softdevice_handler.o
    0x0001fd94   0x00000030   Code   RO         2478    i.softdevice_handler_init  softdevice_handler.o
    0x0001fdc4   0x0000000c   Code   RO         2479    i.softdevice_handler_isEnabled  softdevice_handler.o
    0x0001fdd0   0x00000014   Code   RO         2481    i.softdevice_sys_evt_handler_set  softdevice_handler.o
    0x0001fde4   0x00000008   Code   RO           24    i.spi_data_collection_evt_handler  main.o
    0x0001fdec   0x00000080   Code   RO           26    i.spi_master_0_event_handler  main.o
    0x0001fe6c   0x00000072   Code   RO         1641    i.spi_xfer          nrf_drv_spi.o
    0x0001fede   0x00000002   PAD
    0x0001fee0   0x00000070   Code   RO         2613    i.st_step_search    heatshrink_encoder.o
    0x0001ff50   0x00000064   Code   RO         1418    i.state_data_erase_swap_entry_run  pstorage.o
    0x0001ffb4   0x00000010   Code   RO         1419    i.state_erase_data_page_entry_run  pstorage.o
    0x0001ffc4   0x00000028   Code   RO         1420    i.state_restore_head_entry_run  pstorage.o
    0x0001ffec   0x0000004c   Code   RO         1421    i.state_restore_tail_entry_run  pstorage.o
    0x00020038   0x00000020   Code   RO         1422    i.state_swap_erase_entry_run  pstorage.o
    0x00020058   0x00000030   Code   RO         1423    i.state_write_data_swap_entry_run  pstorage.o
    0x00020088   0x00000004   Code   RO          751    i.storage_operation_dummy_handler  device_manager_peripheral.o
    0x0002008c   0x0000005c   Code   RO         1424    i.store_cmd_flash_write_execute  pstorage.o
    0x000200e8   0x0000001c   Code   RO         1425    i.swap_erase_state_run  pstorage.o
    0x00020104   0x00000018   Code   RO         1426    i.swap_sub_state_err_busy_process  pstorage.o
    0x0002011c   0x00000014   Code   RO         1427    i.swap_sub_state_state_change  pstorage.o
    0x00020130   0x00000054   Code   RO           27    i.switch_state      main.o
    0x00020184   0x00000010   Code   RO           28    i.sys_evt_dispatch  main.o
    0x00020194   0x0000001c   Code   RO         1428    i.tail_restore_state_run  pstorage.o
    0x000201b0   0x00000050   Code   RO         1642    i.transfer_byte     nrf_drv_spi.o
    0x00020200   0x0000002c   Code   RO         1247    i.tx_byte           nrf_drv_uart.o
    0x0002022c   0x00000020   Code   RO         1248    i.tx_done_event     nrf_drv_uart.o
    0x0002024c   0x00000034   Code   RO           30    i.uart_event_handle  main.o
    0x00020280   0x000000b0   Code   RO         1912    i.uart_event_handler  app_uart_fifo.o
    0x00020330   0x00000128   Code   RO         1249    i.uart_irq_handler  nrf_drv_uart.o
    0x00020458   0x0000000a   Code   RO          519    i.uint16_encode     ble_advdata.o
    0x00020462   0x00000002   PAD
    0x00020464   0x00000088   Code   RO         2829    i.ulPortDisableISR  queue.o
    0x000204ec   0x00000014   Code   RO          752    i.update_status_bit_reset  device_manager_peripheral.o
    0x00020500   0x00000030   Code   RO          520    i.uuid_list_encode  ble_advdata.o
    0x00020530   0x000000ae   Code   RO          521    i.uuid_list_sized_encode  ble_advdata.o
    0x000205de   0x00000024   Code   RO         2782    i.uxListRemove      list.o
    0x00020602   0x00000016   Code   RO         2783    i.vListInitialise   list.o
    0x00020618   0x00000006   Code   RO         2784    i.vListInitialiseItem  list.o
    0x0002061e   0x00000030   Code   RO         2785    i.vListInsert       list.o
    0x0002064e   0x00000018   Code   RO         2786    i.vListInsertEnd    list.o
    0x00020666   0x00000032   Code   RO         3162    i.vPortDisableISR   port_cmsis.o
    0x00020698   0x00000032   Code   RO         3338    i.vPortDisableISR   tasks.o
    0x000206ca   0x0000001a   Code   RO         3247    i.vPortEnableISR    port_cmsis_systick.o
    0x000206e4   0x00000014   Code   RO         3164    i.vPortEnterCritical  port_cmsis.o
    0x000206f8   0x00000048   Code   RO         3165    i.vPortExitCritical  port_cmsis.o
    0x00020740   0x00000002   Code   RO         3119    i.vPortFree         heap_1.o
    0x00020742   0x00000020   Code   RO         2833    i.vPortRestoreISR   queue.o
    0x00020762   0x0000006c   Code   RO         3166    i.vPortSafeTaskSwitchContext  port_cmsis.o
    0x000207ce   0x00000002   PAD
    0x000207d0   0x0000004c   Code   RO         3248    i.vPortSetupTimerInterrupt  port_cmsis_systick.o
    0x0002081c   0x00000094   Code   RO         3249    i.vPortSuppressTicksAndSleep  port_cmsis_systick.o
    0x000208b0   0x0000002c   Code   RO         3167    i.vPortTaskYield    port_cmsis.o
    0x000208dc   0x00000024   Code   RO         2834    i.vQueueAddToRegistry  queue.o
    0x00020900   0x00000038   Code   RO         2837    i.vQueueWaitForMessageRestricted  queue.o
    0x00020938   0x0000000c   Code   RO         3344    i.vTaskMissedYield  tasks.o
    0x00020944   0x0000004c   Code   RO         3346    i.vTaskPlaceOnEventList  tasks.o
    0x00020990   0x00000038   Code   RO         3347    i.vTaskPlaceOnEventListRestricted  tasks.o
    0x000209c8   0x00000080   Code   RO         3349    i.vTaskPriorityInherit  tasks.o
    0x00020a48   0x00000010   Code   RO         3352    i.vTaskSetTimeOutState  tasks.o
    0x00020a58   0x0000004c   Code   RO         3353    i.vTaskStartScheduler  tasks.o
    0x00020aa4   0x00000010   Code   RO         3354    i.vTaskStepTick     tasks.o
    0x00020ab4   0x00000010   Code   RO         3356    i.vTaskSuspendAll   tasks.o
    0x00020ac4   0x0000006c   Code   RO         3357    i.vTaskSwitchContext  tasks.o
    0x00020b30   0x00000010   Code   RO          440    i.whitelist_has_entries  ble_advertising.o
    0x00020b40   0x00000038   Code   RO         3168    i.xPortStartScheduler  port_cmsis.o
    0x00020b78   0x0000003e   Code   RO         2840    i.xQueueGenericCreate  queue.o
    0x00020bb6   0x00000110   Code   RO         2841    i.xQueueGenericReceive  queue.o
    0x00020cc6   0x00000062   Code   RO         2842    i.xQueueGenericReset  queue.o
    0x00020d28   0x000000de   Code   RO         2843    i.xQueueGenericSend  queue.o
    0x00020e06   0x00000060   Code   RO         2844    i.xQueueGenericSendFromISR  queue.o
    0x00020e66   0x00000002   PAD
    0x00020e68   0x00000048   Code   RO         3358    i.xTaskCheckForTimeOut  tasks.o
    0x00020eb0   0x00000160   Code   RO         3359    i.xTaskGenericCreate  tasks.o
    0x00021010   0x00000020   Code   RO         3363    i.xTaskGetSchedulerState  tasks.o
    0x00021030   0x0000000c   Code   RO         3364    i.xTaskGetTickCount  tasks.o
    0x0002103c   0x0000000c   Code   RO         3365    i.xTaskGetTickCountFromISR  tasks.o
    0x00021048   0x000000a4   Code   RO         3366    i.xTaskIncrementTick  tasks.o
    0x000210ec   0x00000070   Code   RO         3369    i.xTaskPriorityDisinherit  tasks.o
    0x0002115c   0x00000064   Code   RO         3370    i.xTaskRemoveFromEventList  tasks.o
    0x000211c0   0x000000a0   Code   RO         3372    i.xTaskResumeAll    tasks.o
    0x00021260   0x00000038   Code   RO         3016    i.xTimerCreate      timers.o
    0x00021298   0x00000044   Code   RO         3017    i.xTimerCreateTimerTask  timers.o
    0x000212dc   0x0000004c   Code   RO         3018    i.xTimerGenericCommand  timers.o
    0x00021328   0x0000009c   Data   RO           32    .constdata          main.o
    0x000213c4   0x00000030   Data   RO          754    .constdata          device_manager_peripheral.o
    0x000213f4   0x00000020   Data   RO         1251    .constdata          nrf_drv_uart.o
    0x00021414   0x00000028   Data   RO         1430    .constdata          pstorage.o
    0x0002143c   0x00000010   Data   RO         1644    .constdata          nrf_drv_spi.o
    0x0002144c   0x00000020   Data   RO         1914    .constdata          app_uart_fifo.o
    0x0002146c   0x00000004   Data   RO         3169    .constdata          port_cmsis.o
    0x00021470   0x00000020   Data   RO         4058    Region$$Table       anon$$obj.o


    Execution Region RW_IRAM1 (Base: 0x20001f00, Size: 0x00002e00, Max: 0x00006100, ABSOLUTE, COMPRESSED[0x00000048])

    Base Addr    Size         Type   Attr      Idx    E Section Name        Object

    0x20001f00   0x00000095   Data   RW           33    .data               main.o
    0x20001f95   0x00000003   PAD
    0x20001f98   0x0000001f   Data   RW          442    .data               ble_advertising.o
    0x20001fb7   0x00000001   PAD
    0x20001fb8   0x00000010   Data   RW          756    .data               device_manager_peripheral.o
    0x20001fc8   0x00000024   Data   RW         1431    .data               pstorage.o
    0x20001fec   0x00000008   Data   RW         1915    .data               app_uart_fifo.o
    0x20001ff4   0x00000004   Data   RW         2294    .data               retarget.o
    0x20001ff8   0x00000014   Data   RW         2482    .data               softdevice_handler.o
    0x2000200c   0x00000014   Data   RW         3024    .data               timers.o
    0x20002020   0x00000008   Data   RW         3123    .data               heap_1.o
    0x20002028   0x00000008   Data   RW         3170    .data               port_cmsis.o
    0x20002030   0x0000003c   Data   RW         3375    .data               tasks.o
    0x2000206c   0x00000004   Data   RW         3673    .data               system_nrf51.o
    0x20002070   0x00000004   Data   RW         4033    .data               mc_p.l(mvars.o)
    0x20002074   0x00000004   Data   RW         4034    .data               mc_p.l(mvars.o)
    0x20002078   0x00000882   Zero   RW           31    .bss                main.o
    0x200028fa   0x00000002   PAD
    0x200028fc   0x00000103   Zero   RW          441    .bss                ble_advertising.o
    0x200029ff   0x00000001   PAD
    0x20002a00   0x0000009f   Zero   RW          753    .bss                device_manager_peripheral.o
    0x20002a9f   0x00000001   PAD
    0x20002aa0   0x00000048   Zero   RW         1065    .bss                nrf_drv_gpiote.o
    0x20002ae8   0x0000001c   Zero   RW         1250    .bss                nrf_drv_uart.o
    0x20002b04   0x000000d8   Zero   RW         1429    .bss                pstorage.o
    0x20002bdc   0x00000020   Zero   RW         1643    .bss                nrf_drv_spi.o
    0x20002bfc   0x0000000c   Zero   RW         1727    .bss                nrf_drv_clock.o
    0x20002c08   0x00000020   Zero   RW         1913    .bss                app_uart_fifo.o
    0x20002c28   0x00000010   Zero   RW         2852    .bss                queue.o
    0x20002c38   0x00000028   Zero   RW         3023    .bss                timers.o
    0x20002c60   0x00001000   Zero   RW         3122    .bss                heap_1.o
    0x20003c60   0x000000a0   Zero   RW         3374    .bss                tasks.o
    0x20003d00   0x00000800   Zero   RW         3662    HEAP                arm_startup_nrf51.o
    0x20004500   0x00000800   Zero   RW         3661    STACK               arm_startup_nrf51.o


==============================================================================

Image component sizes


      Code (inc. data)   RO Data    RW Data    ZI Data      Debug   Object Name

        52         16          0          0          0       9267   app_error.o
       122          0          0          0          0       4286   app_fifo.o
       428         44         32          8         32      10546   app_uart_fifo.o
        56         18        192          0       4096        732   arm_startup_nrf51.o
      1588          6          0          0          0      19764   ble_advdata.o
       998         34          0         31        259       8153   ble_advertising.o
         0          0          0          0          0       1472   ble_conn_params.o
        26          0          0          0          0         72   ble_srv_common.o
      2740        182         48         16        159      33009   device_manager_peripheral.o
         0          0          0          0          0       3048   event_groups.o
        82         12          0          8       4096       2483   heap_1.o
      1052         46          0          0          0      12059   heatshrink_encoder.o
       136          0          0          0          0       3838   list.o
      2840        634        156        149       2178     121723   main.o
        58          4          0          0          0       1843   nrf_delay.o
        48          6          0          0         12       9723   nrf_drv_clock.o
        96         18          0          0          0       7332   nrf_drv_common.o
       332         48          0          0         72      13608   nrf_drv_gpiote.o
       814         58         16          0         32      19769   nrf_drv_spi.o
      1196        136         32          0         28      32508   nrf_drv_uart.o
       108         16          0          0          0        628   port.o
       460         46          4          8          0      17617   port_cmsis.o
       490         64          0          0          0      17214   port_cmsis_systick.o
      2830        262         40         36        216      39262   pstorage.o
      1272         14          0          0         16      25629   queue.o
        14          0          0          4          0       2886   retarget.o
       332         44          0         20          0      10655   softdevice_handler.o
       156         26          0          4          0       2287   system_nrf51.o
      1958        194          0         60        160      33030   tasks.o
       800         72          0         20         40      10390   timers.o

    ----------------------------------------------------------------------
     21118       2000        552        368      11400     474833   Object Totals
         0          0         32          0          0          0   (incl. Generated)
        34          0          0          4          4          0   (incl. Padding)

    ----------------------------------------------------------------------

      Code (inc. data)   RO Data    RW Data    ZI Data      Debug   Library Member Name

        86          0          0          0          0          0   __dczerorl2.o
         0          0          0          0          0          0   entry.o
         0          0          0          0          0          0   entry10a.o
         0          0          0          0          0          0   entry11a.o
         8          4          0          0          0          0   entry2.o
         4          0          0          0          0          0   entry5.o
         0          0          0          0          0          0   entry7b.o
         0          0          0          0          0          0   entry8b.o
         8          4          0          0          0          0   entry9a.o
        30          0          0          0          0          0   handlers.o
        40          0          0          0          0         72   idiv.o
        36          8          0          0          0         68   init.o
         0          0          0          0          0          0   iusefp.o
        32          0          0          0          0         68   llshl.o
        38          0          0          0          0         68   llsshr.o
        34          0          0          0          0         68   llushr.o
       108         16          0          0          0         76   malloc.o
        26          0          0          0          0         72   memcmp.o
        64          0          0          0          0         68   memmovea.o
        36          0          0          0          0        100   memseta.o
         0          0          0          8          0          0   mvars.o
      2224         98          0          0          0        412   printfa.o
        14          0          0          0          0         60   strlen.o
        44          0          0          0          0         72   uidiv.o
        96          0          0          0          0         84   uldiv.o
        40          2          0          0          0         68   cdrcmple.o
       356          4          0          0          0        140   dadd.o
       240          6          0          0          0         84   ddiv.o
       236          0          0          0          0        216   depilogue.o
        64         10          0          0          0         68   dfixul.o
       208          6          0          0          0         88   dmul.o

    ----------------------------------------------------------------------
      4074        158          0          8          0       1952   Library Totals
         2          0          0          0          0          0   (incl. Padding)

    ----------------------------------------------------------------------

      Code (inc. data)   RO Data    RW Data    ZI Data      Debug   Library Name

      2928        130          0          8          0       1288   mc_p.l
      1144         28          0          0          0        664   mf_p.l

    ----------------------------------------------------------------------
      4074        158          0          8          0       1952   Library Totals

    ----------------------------------------------------------------------

==============================================================================


      Code (inc. data)   RO Data    RW Data    ZI Data      Debug   

     25192       2158        552        376      11400     465193   Grand Totals
     25192       2158        552         72      11400     465193   ELF Image Totals (compressed)
     25192       2158        552         72          0          0   ROM Totals

==============================================================================

    Total RO  Size (Code + RO Data)                25744 (  25.14kB)
    Total RW  Size (RW Data + ZI Data)             11776 (  11.50kB)
    Total ROM Size (Code + RO Data + RW Data)      25816 (  25.21kB)

==============================================================================

